
interrupt-stub.o:     file format elf64-x86-64


Disassembly of section .text:

0000000000000000 <intr_handler_0>:
       0:	55                   	push   %rbp
       1:	48 89 e5             	mov    %rsp,%rbp
       4:	50                   	push   %rax
       5:	53                   	push   %rbx
       6:	51                   	push   %rcx
       7:	52                   	push   %rdx
       8:	57                   	push   %rdi
       9:	56                   	push   %rsi
       a:	54                   	push   %rsp
       b:	55                   	push   %rbp
       c:	41 50                	push   %r8
       e:	41 51                	push   %r9
      10:	41 52                	push   %r10
      12:	41 53                	push   %r11
      14:	41 54                	push   %r12
      16:	41 55                	push   %r13
      18:	41 56                	push   %r14
      1a:	41 57                	push   %r15
      1c:	9c                   	pushfq 
      1d:	bf 00 00 00 00       	mov    $0x0,%edi
      22:	e8 00 00 00 00       	callq  27 <intr_handler_0+0x27>
      27:	9d                   	popfq  
      28:	41 5f                	pop    %r15
      2a:	41 5e                	pop    %r14
      2c:	41 5d                	pop    %r13
      2e:	41 5c                	pop    %r12
      30:	41 5b                	pop    %r11
      32:	41 5a                	pop    %r10
      34:	41 59                	pop    %r9
      36:	41 58                	pop    %r8
      38:	5d                   	pop    %rbp
      39:	48 83 c4 08          	add    $0x8,%rsp
      3d:	5e                   	pop    %rsi
      3e:	5f                   	pop    %rdi
      3f:	5a                   	pop    %rdx
      40:	59                   	pop    %rcx
      41:	5b                   	pop    %rbx
      42:	58                   	pop    %rax
      43:	48 89 6c 24 38       	mov    %rbp,0x38(%rsp)
      48:	48 cf                	iretq  

000000000000004a <intr_handler_1>:
      4a:	55                   	push   %rbp
      4b:	48 89 e5             	mov    %rsp,%rbp
      4e:	50                   	push   %rax
      4f:	53                   	push   %rbx
      50:	51                   	push   %rcx
      51:	52                   	push   %rdx
      52:	57                   	push   %rdi
      53:	56                   	push   %rsi
      54:	54                   	push   %rsp
      55:	55                   	push   %rbp
      56:	41 50                	push   %r8
      58:	41 51                	push   %r9
      5a:	41 52                	push   %r10
      5c:	41 53                	push   %r11
      5e:	41 54                	push   %r12
      60:	41 55                	push   %r13
      62:	41 56                	push   %r14
      64:	41 57                	push   %r15
      66:	9c                   	pushfq 
      67:	bf 01 00 00 00       	mov    $0x1,%edi
      6c:	e8 00 00 00 00       	callq  71 <intr_handler_1+0x27>
      71:	9d                   	popfq  
      72:	41 5f                	pop    %r15
      74:	41 5e                	pop    %r14
      76:	41 5d                	pop    %r13
      78:	41 5c                	pop    %r12
      7a:	41 5b                	pop    %r11
      7c:	41 5a                	pop    %r10
      7e:	41 59                	pop    %r9
      80:	41 58                	pop    %r8
      82:	5d                   	pop    %rbp
      83:	48 83 c4 08          	add    $0x8,%rsp
      87:	5e                   	pop    %rsi
      88:	5f                   	pop    %rdi
      89:	5a                   	pop    %rdx
      8a:	59                   	pop    %rcx
      8b:	5b                   	pop    %rbx
      8c:	58                   	pop    %rax
      8d:	48 89 6c 24 38       	mov    %rbp,0x38(%rsp)
      92:	48 cf                	iretq  

0000000000000094 <intr_handler_2>:
      94:	55                   	push   %rbp
      95:	48 89 e5             	mov    %rsp,%rbp
      98:	50                   	push   %rax
      99:	53                   	push   %rbx
      9a:	51                   	push   %rcx
      9b:	52                   	push   %rdx
      9c:	57                   	push   %rdi
      9d:	56                   	push   %rsi
      9e:	54                   	push   %rsp
      9f:	55                   	push   %rbp
      a0:	41 50                	push   %r8
      a2:	41 51                	push   %r9
      a4:	41 52                	push   %r10
      a6:	41 53                	push   %r11
      a8:	41 54                	push   %r12
      aa:	41 55                	push   %r13
      ac:	41 56                	push   %r14
      ae:	41 57                	push   %r15
      b0:	9c                   	pushfq 
      b1:	bf 02 00 00 00       	mov    $0x2,%edi
      b6:	e8 00 00 00 00       	callq  bb <intr_handler_2+0x27>
      bb:	9d                   	popfq  
      bc:	41 5f                	pop    %r15
      be:	41 5e                	pop    %r14
      c0:	41 5d                	pop    %r13
      c2:	41 5c                	pop    %r12
      c4:	41 5b                	pop    %r11
      c6:	41 5a                	pop    %r10
      c8:	41 59                	pop    %r9
      ca:	41 58                	pop    %r8
      cc:	5d                   	pop    %rbp
      cd:	48 83 c4 08          	add    $0x8,%rsp
      d1:	5e                   	pop    %rsi
      d2:	5f                   	pop    %rdi
      d3:	5a                   	pop    %rdx
      d4:	59                   	pop    %rcx
      d5:	5b                   	pop    %rbx
      d6:	58                   	pop    %rax
      d7:	48 89 6c 24 38       	mov    %rbp,0x38(%rsp)
      dc:	48 cf                	iretq  

00000000000000de <intr_handler_3>:
      de:	55                   	push   %rbp
      df:	48 89 e5             	mov    %rsp,%rbp
      e2:	50                   	push   %rax
      e3:	53                   	push   %rbx
      e4:	51                   	push   %rcx
      e5:	52                   	push   %rdx
      e6:	57                   	push   %rdi
      e7:	56                   	push   %rsi
      e8:	54                   	push   %rsp
      e9:	55                   	push   %rbp
      ea:	41 50                	push   %r8
      ec:	41 51                	push   %r9
      ee:	41 52                	push   %r10
      f0:	41 53                	push   %r11
      f2:	41 54                	push   %r12
      f4:	41 55                	push   %r13
      f6:	41 56                	push   %r14
      f8:	41 57                	push   %r15
      fa:	9c                   	pushfq 
      fb:	bf 03 00 00 00       	mov    $0x3,%edi
     100:	e8 00 00 00 00       	callq  105 <intr_handler_3+0x27>
     105:	9d                   	popfq  
     106:	41 5f                	pop    %r15
     108:	41 5e                	pop    %r14
     10a:	41 5d                	pop    %r13
     10c:	41 5c                	pop    %r12
     10e:	41 5b                	pop    %r11
     110:	41 5a                	pop    %r10
     112:	41 59                	pop    %r9
     114:	41 58                	pop    %r8
     116:	5d                   	pop    %rbp
     117:	48 83 c4 08          	add    $0x8,%rsp
     11b:	5e                   	pop    %rsi
     11c:	5f                   	pop    %rdi
     11d:	5a                   	pop    %rdx
     11e:	59                   	pop    %rcx
     11f:	5b                   	pop    %rbx
     120:	58                   	pop    %rax
     121:	48 89 6c 24 38       	mov    %rbp,0x38(%rsp)
     126:	48 cf                	iretq  

0000000000000128 <intr_handler_4>:
     128:	55                   	push   %rbp
     129:	48 89 e5             	mov    %rsp,%rbp
     12c:	50                   	push   %rax
     12d:	53                   	push   %rbx
     12e:	51                   	push   %rcx
     12f:	52                   	push   %rdx
     130:	57                   	push   %rdi
     131:	56                   	push   %rsi
     132:	54                   	push   %rsp
     133:	55                   	push   %rbp
     134:	41 50                	push   %r8
     136:	41 51                	push   %r9
     138:	41 52                	push   %r10
     13a:	41 53                	push   %r11
     13c:	41 54                	push   %r12
     13e:	41 55                	push   %r13
     140:	41 56                	push   %r14
     142:	41 57                	push   %r15
     144:	9c                   	pushfq 
     145:	bf 04 00 00 00       	mov    $0x4,%edi
     14a:	e8 00 00 00 00       	callq  14f <intr_handler_4+0x27>
     14f:	9d                   	popfq  
     150:	41 5f                	pop    %r15
     152:	41 5e                	pop    %r14
     154:	41 5d                	pop    %r13
     156:	41 5c                	pop    %r12
     158:	41 5b                	pop    %r11
     15a:	41 5a                	pop    %r10
     15c:	41 59                	pop    %r9
     15e:	41 58                	pop    %r8
     160:	5d                   	pop    %rbp
     161:	48 83 c4 08          	add    $0x8,%rsp
     165:	5e                   	pop    %rsi
     166:	5f                   	pop    %rdi
     167:	5a                   	pop    %rdx
     168:	59                   	pop    %rcx
     169:	5b                   	pop    %rbx
     16a:	58                   	pop    %rax
     16b:	48 89 6c 24 38       	mov    %rbp,0x38(%rsp)
     170:	48 cf                	iretq  

0000000000000172 <intr_handler_5>:
     172:	55                   	push   %rbp
     173:	48 89 e5             	mov    %rsp,%rbp
     176:	50                   	push   %rax
     177:	53                   	push   %rbx
     178:	51                   	push   %rcx
     179:	52                   	push   %rdx
     17a:	57                   	push   %rdi
     17b:	56                   	push   %rsi
     17c:	54                   	push   %rsp
     17d:	55                   	push   %rbp
     17e:	41 50                	push   %r8
     180:	41 51                	push   %r9
     182:	41 52                	push   %r10
     184:	41 53                	push   %r11
     186:	41 54                	push   %r12
     188:	41 55                	push   %r13
     18a:	41 56                	push   %r14
     18c:	41 57                	push   %r15
     18e:	9c                   	pushfq 
     18f:	bf 05 00 00 00       	mov    $0x5,%edi
     194:	e8 00 00 00 00       	callq  199 <intr_handler_5+0x27>
     199:	9d                   	popfq  
     19a:	41 5f                	pop    %r15
     19c:	41 5e                	pop    %r14
     19e:	41 5d                	pop    %r13
     1a0:	41 5c                	pop    %r12
     1a2:	41 5b                	pop    %r11
     1a4:	41 5a                	pop    %r10
     1a6:	41 59                	pop    %r9
     1a8:	41 58                	pop    %r8
     1aa:	5d                   	pop    %rbp
     1ab:	48 83 c4 08          	add    $0x8,%rsp
     1af:	5e                   	pop    %rsi
     1b0:	5f                   	pop    %rdi
     1b1:	5a                   	pop    %rdx
     1b2:	59                   	pop    %rcx
     1b3:	5b                   	pop    %rbx
     1b4:	58                   	pop    %rax
     1b5:	48 89 6c 24 38       	mov    %rbp,0x38(%rsp)
     1ba:	48 cf                	iretq  

00000000000001bc <intr_handler_6>:
     1bc:	55                   	push   %rbp
     1bd:	48 89 e5             	mov    %rsp,%rbp
     1c0:	50                   	push   %rax
     1c1:	53                   	push   %rbx
     1c2:	51                   	push   %rcx
     1c3:	52                   	push   %rdx
     1c4:	57                   	push   %rdi
     1c5:	56                   	push   %rsi
     1c6:	54                   	push   %rsp
     1c7:	55                   	push   %rbp
     1c8:	41 50                	push   %r8
     1ca:	41 51                	push   %r9
     1cc:	41 52                	push   %r10
     1ce:	41 53                	push   %r11
     1d0:	41 54                	push   %r12
     1d2:	41 55                	push   %r13
     1d4:	41 56                	push   %r14
     1d6:	41 57                	push   %r15
     1d8:	9c                   	pushfq 
     1d9:	bf 06 00 00 00       	mov    $0x6,%edi
     1de:	e8 00 00 00 00       	callq  1e3 <intr_handler_6+0x27>
     1e3:	9d                   	popfq  
     1e4:	41 5f                	pop    %r15
     1e6:	41 5e                	pop    %r14
     1e8:	41 5d                	pop    %r13
     1ea:	41 5c                	pop    %r12
     1ec:	41 5b                	pop    %r11
     1ee:	41 5a                	pop    %r10
     1f0:	41 59                	pop    %r9
     1f2:	41 58                	pop    %r8
     1f4:	5d                   	pop    %rbp
     1f5:	48 83 c4 08          	add    $0x8,%rsp
     1f9:	5e                   	pop    %rsi
     1fa:	5f                   	pop    %rdi
     1fb:	5a                   	pop    %rdx
     1fc:	59                   	pop    %rcx
     1fd:	5b                   	pop    %rbx
     1fe:	58                   	pop    %rax
     1ff:	48 89 6c 24 38       	mov    %rbp,0x38(%rsp)
     204:	48 cf                	iretq  

0000000000000206 <intr_handler_7>:
     206:	55                   	push   %rbp
     207:	48 89 e5             	mov    %rsp,%rbp
     20a:	50                   	push   %rax
     20b:	53                   	push   %rbx
     20c:	51                   	push   %rcx
     20d:	52                   	push   %rdx
     20e:	57                   	push   %rdi
     20f:	56                   	push   %rsi
     210:	54                   	push   %rsp
     211:	55                   	push   %rbp
     212:	41 50                	push   %r8
     214:	41 51                	push   %r9
     216:	41 52                	push   %r10
     218:	41 53                	push   %r11
     21a:	41 54                	push   %r12
     21c:	41 55                	push   %r13
     21e:	41 56                	push   %r14
     220:	41 57                	push   %r15
     222:	9c                   	pushfq 
     223:	bf 07 00 00 00       	mov    $0x7,%edi
     228:	e8 00 00 00 00       	callq  22d <intr_handler_7+0x27>
     22d:	9d                   	popfq  
     22e:	41 5f                	pop    %r15
     230:	41 5e                	pop    %r14
     232:	41 5d                	pop    %r13
     234:	41 5c                	pop    %r12
     236:	41 5b                	pop    %r11
     238:	41 5a                	pop    %r10
     23a:	41 59                	pop    %r9
     23c:	41 58                	pop    %r8
     23e:	5d                   	pop    %rbp
     23f:	48 83 c4 08          	add    $0x8,%rsp
     243:	5e                   	pop    %rsi
     244:	5f                   	pop    %rdi
     245:	5a                   	pop    %rdx
     246:	59                   	pop    %rcx
     247:	5b                   	pop    %rbx
     248:	58                   	pop    %rax
     249:	48 89 6c 24 38       	mov    %rbp,0x38(%rsp)
     24e:	48 cf                	iretq  

0000000000000250 <intr_handler_8>:
     250:	55                   	push   %rbp
     251:	48 89 e5             	mov    %rsp,%rbp
     254:	50                   	push   %rax
     255:	53                   	push   %rbx
     256:	51                   	push   %rcx
     257:	52                   	push   %rdx
     258:	57                   	push   %rdi
     259:	56                   	push   %rsi
     25a:	54                   	push   %rsp
     25b:	55                   	push   %rbp
     25c:	41 50                	push   %r8
     25e:	41 51                	push   %r9
     260:	41 52                	push   %r10
     262:	41 53                	push   %r11
     264:	41 54                	push   %r12
     266:	41 55                	push   %r13
     268:	41 56                	push   %r14
     26a:	41 57                	push   %r15
     26c:	9c                   	pushfq 
     26d:	bf 08 00 00 00       	mov    $0x8,%edi
     272:	e8 00 00 00 00       	callq  277 <intr_handler_8+0x27>
     277:	9d                   	popfq  
     278:	41 5f                	pop    %r15
     27a:	41 5e                	pop    %r14
     27c:	41 5d                	pop    %r13
     27e:	41 5c                	pop    %r12
     280:	41 5b                	pop    %r11
     282:	41 5a                	pop    %r10
     284:	41 59                	pop    %r9
     286:	41 58                	pop    %r8
     288:	5d                   	pop    %rbp
     289:	48 83 c4 08          	add    $0x8,%rsp
     28d:	5e                   	pop    %rsi
     28e:	5f                   	pop    %rdi
     28f:	5a                   	pop    %rdx
     290:	59                   	pop    %rcx
     291:	5b                   	pop    %rbx
     292:	58                   	pop    %rax
     293:	48 89 6c 24 38       	mov    %rbp,0x38(%rsp)
     298:	48 cf                	iretq  

000000000000029a <intr_handler_9>:
     29a:	55                   	push   %rbp
     29b:	48 89 e5             	mov    %rsp,%rbp
     29e:	50                   	push   %rax
     29f:	53                   	push   %rbx
     2a0:	51                   	push   %rcx
     2a1:	52                   	push   %rdx
     2a2:	57                   	push   %rdi
     2a3:	56                   	push   %rsi
     2a4:	54                   	push   %rsp
     2a5:	55                   	push   %rbp
     2a6:	41 50                	push   %r8
     2a8:	41 51                	push   %r9
     2aa:	41 52                	push   %r10
     2ac:	41 53                	push   %r11
     2ae:	41 54                	push   %r12
     2b0:	41 55                	push   %r13
     2b2:	41 56                	push   %r14
     2b4:	41 57                	push   %r15
     2b6:	9c                   	pushfq 
     2b7:	bf 09 00 00 00       	mov    $0x9,%edi
     2bc:	e8 00 00 00 00       	callq  2c1 <intr_handler_9+0x27>
     2c1:	9d                   	popfq  
     2c2:	41 5f                	pop    %r15
     2c4:	41 5e                	pop    %r14
     2c6:	41 5d                	pop    %r13
     2c8:	41 5c                	pop    %r12
     2ca:	41 5b                	pop    %r11
     2cc:	41 5a                	pop    %r10
     2ce:	41 59                	pop    %r9
     2d0:	41 58                	pop    %r8
     2d2:	5d                   	pop    %rbp
     2d3:	48 83 c4 08          	add    $0x8,%rsp
     2d7:	5e                   	pop    %rsi
     2d8:	5f                   	pop    %rdi
     2d9:	5a                   	pop    %rdx
     2da:	59                   	pop    %rcx
     2db:	5b                   	pop    %rbx
     2dc:	58                   	pop    %rax
     2dd:	48 89 6c 24 38       	mov    %rbp,0x38(%rsp)
     2e2:	48 cf                	iretq  

00000000000002e4 <intr_handler_10>:
     2e4:	55                   	push   %rbp
     2e5:	48 89 e5             	mov    %rsp,%rbp
     2e8:	50                   	push   %rax
     2e9:	53                   	push   %rbx
     2ea:	51                   	push   %rcx
     2eb:	52                   	push   %rdx
     2ec:	57                   	push   %rdi
     2ed:	56                   	push   %rsi
     2ee:	54                   	push   %rsp
     2ef:	55                   	push   %rbp
     2f0:	41 50                	push   %r8
     2f2:	41 51                	push   %r9
     2f4:	41 52                	push   %r10
     2f6:	41 53                	push   %r11
     2f8:	41 54                	push   %r12
     2fa:	41 55                	push   %r13
     2fc:	41 56                	push   %r14
     2fe:	41 57                	push   %r15
     300:	9c                   	pushfq 
     301:	bf 0a 00 00 00       	mov    $0xa,%edi
     306:	e8 00 00 00 00       	callq  30b <intr_handler_10+0x27>
     30b:	9d                   	popfq  
     30c:	41 5f                	pop    %r15
     30e:	41 5e                	pop    %r14
     310:	41 5d                	pop    %r13
     312:	41 5c                	pop    %r12
     314:	41 5b                	pop    %r11
     316:	41 5a                	pop    %r10
     318:	41 59                	pop    %r9
     31a:	41 58                	pop    %r8
     31c:	5d                   	pop    %rbp
     31d:	48 83 c4 08          	add    $0x8,%rsp
     321:	5e                   	pop    %rsi
     322:	5f                   	pop    %rdi
     323:	5a                   	pop    %rdx
     324:	59                   	pop    %rcx
     325:	5b                   	pop    %rbx
     326:	58                   	pop    %rax
     327:	48 89 6c 24 38       	mov    %rbp,0x38(%rsp)
     32c:	48 cf                	iretq  

000000000000032e <intr_handler_11>:
     32e:	55                   	push   %rbp
     32f:	48 89 e5             	mov    %rsp,%rbp
     332:	50                   	push   %rax
     333:	53                   	push   %rbx
     334:	51                   	push   %rcx
     335:	52                   	push   %rdx
     336:	57                   	push   %rdi
     337:	56                   	push   %rsi
     338:	54                   	push   %rsp
     339:	55                   	push   %rbp
     33a:	41 50                	push   %r8
     33c:	41 51                	push   %r9
     33e:	41 52                	push   %r10
     340:	41 53                	push   %r11
     342:	41 54                	push   %r12
     344:	41 55                	push   %r13
     346:	41 56                	push   %r14
     348:	41 57                	push   %r15
     34a:	9c                   	pushfq 
     34b:	bf 0b 00 00 00       	mov    $0xb,%edi
     350:	e8 00 00 00 00       	callq  355 <intr_handler_11+0x27>
     355:	9d                   	popfq  
     356:	41 5f                	pop    %r15
     358:	41 5e                	pop    %r14
     35a:	41 5d                	pop    %r13
     35c:	41 5c                	pop    %r12
     35e:	41 5b                	pop    %r11
     360:	41 5a                	pop    %r10
     362:	41 59                	pop    %r9
     364:	41 58                	pop    %r8
     366:	5d                   	pop    %rbp
     367:	48 83 c4 08          	add    $0x8,%rsp
     36b:	5e                   	pop    %rsi
     36c:	5f                   	pop    %rdi
     36d:	5a                   	pop    %rdx
     36e:	59                   	pop    %rcx
     36f:	5b                   	pop    %rbx
     370:	58                   	pop    %rax
     371:	48 89 6c 24 38       	mov    %rbp,0x38(%rsp)
     376:	48 cf                	iretq  

0000000000000378 <intr_handler_12>:
     378:	55                   	push   %rbp
     379:	48 89 e5             	mov    %rsp,%rbp
     37c:	50                   	push   %rax
     37d:	53                   	push   %rbx
     37e:	51                   	push   %rcx
     37f:	52                   	push   %rdx
     380:	57                   	push   %rdi
     381:	56                   	push   %rsi
     382:	54                   	push   %rsp
     383:	55                   	push   %rbp
     384:	41 50                	push   %r8
     386:	41 51                	push   %r9
     388:	41 52                	push   %r10
     38a:	41 53                	push   %r11
     38c:	41 54                	push   %r12
     38e:	41 55                	push   %r13
     390:	41 56                	push   %r14
     392:	41 57                	push   %r15
     394:	9c                   	pushfq 
     395:	bf 0c 00 00 00       	mov    $0xc,%edi
     39a:	e8 00 00 00 00       	callq  39f <intr_handler_12+0x27>
     39f:	9d                   	popfq  
     3a0:	41 5f                	pop    %r15
     3a2:	41 5e                	pop    %r14
     3a4:	41 5d                	pop    %r13
     3a6:	41 5c                	pop    %r12
     3a8:	41 5b                	pop    %r11
     3aa:	41 5a                	pop    %r10
     3ac:	41 59                	pop    %r9
     3ae:	41 58                	pop    %r8
     3b0:	5d                   	pop    %rbp
     3b1:	48 83 c4 08          	add    $0x8,%rsp
     3b5:	5e                   	pop    %rsi
     3b6:	5f                   	pop    %rdi
     3b7:	5a                   	pop    %rdx
     3b8:	59                   	pop    %rcx
     3b9:	5b                   	pop    %rbx
     3ba:	58                   	pop    %rax
     3bb:	48 89 6c 24 38       	mov    %rbp,0x38(%rsp)
     3c0:	48 cf                	iretq  

00000000000003c2 <intr_handler_13>:
     3c2:	55                   	push   %rbp
     3c3:	48 89 e5             	mov    %rsp,%rbp
     3c6:	50                   	push   %rax
     3c7:	53                   	push   %rbx
     3c8:	51                   	push   %rcx
     3c9:	52                   	push   %rdx
     3ca:	57                   	push   %rdi
     3cb:	56                   	push   %rsi
     3cc:	54                   	push   %rsp
     3cd:	55                   	push   %rbp
     3ce:	41 50                	push   %r8
     3d0:	41 51                	push   %r9
     3d2:	41 52                	push   %r10
     3d4:	41 53                	push   %r11
     3d6:	41 54                	push   %r12
     3d8:	41 55                	push   %r13
     3da:	41 56                	push   %r14
     3dc:	41 57                	push   %r15
     3de:	9c                   	pushfq 
     3df:	bf 0d 00 00 00       	mov    $0xd,%edi
     3e4:	e8 00 00 00 00       	callq  3e9 <intr_handler_13+0x27>
     3e9:	9d                   	popfq  
     3ea:	41 5f                	pop    %r15
     3ec:	41 5e                	pop    %r14
     3ee:	41 5d                	pop    %r13
     3f0:	41 5c                	pop    %r12
     3f2:	41 5b                	pop    %r11
     3f4:	41 5a                	pop    %r10
     3f6:	41 59                	pop    %r9
     3f8:	41 58                	pop    %r8
     3fa:	5d                   	pop    %rbp
     3fb:	48 83 c4 08          	add    $0x8,%rsp
     3ff:	5e                   	pop    %rsi
     400:	5f                   	pop    %rdi
     401:	5a                   	pop    %rdx
     402:	59                   	pop    %rcx
     403:	5b                   	pop    %rbx
     404:	58                   	pop    %rax
     405:	48 89 6c 24 38       	mov    %rbp,0x38(%rsp)
     40a:	48 cf                	iretq  

000000000000040c <intr_handler_14>:
     40c:	55                   	push   %rbp
     40d:	48 89 e5             	mov    %rsp,%rbp
     410:	50                   	push   %rax
     411:	53                   	push   %rbx
     412:	51                   	push   %rcx
     413:	52                   	push   %rdx
     414:	57                   	push   %rdi
     415:	56                   	push   %rsi
     416:	54                   	push   %rsp
     417:	55                   	push   %rbp
     418:	41 50                	push   %r8
     41a:	41 51                	push   %r9
     41c:	41 52                	push   %r10
     41e:	41 53                	push   %r11
     420:	41 54                	push   %r12
     422:	41 55                	push   %r13
     424:	41 56                	push   %r14
     426:	41 57                	push   %r15
     428:	9c                   	pushfq 
     429:	bf 0e 00 00 00       	mov    $0xe,%edi
     42e:	e8 00 00 00 00       	callq  433 <intr_handler_14+0x27>
     433:	9d                   	popfq  
     434:	41 5f                	pop    %r15
     436:	41 5e                	pop    %r14
     438:	41 5d                	pop    %r13
     43a:	41 5c                	pop    %r12
     43c:	41 5b                	pop    %r11
     43e:	41 5a                	pop    %r10
     440:	41 59                	pop    %r9
     442:	41 58                	pop    %r8
     444:	5d                   	pop    %rbp
     445:	48 83 c4 08          	add    $0x8,%rsp
     449:	5e                   	pop    %rsi
     44a:	5f                   	pop    %rdi
     44b:	5a                   	pop    %rdx
     44c:	59                   	pop    %rcx
     44d:	5b                   	pop    %rbx
     44e:	58                   	pop    %rax
     44f:	48 89 6c 24 38       	mov    %rbp,0x38(%rsp)
     454:	48 cf                	iretq  

0000000000000456 <intr_handler_15>:
     456:	55                   	push   %rbp
     457:	48 89 e5             	mov    %rsp,%rbp
     45a:	50                   	push   %rax
     45b:	53                   	push   %rbx
     45c:	51                   	push   %rcx
     45d:	52                   	push   %rdx
     45e:	57                   	push   %rdi
     45f:	56                   	push   %rsi
     460:	54                   	push   %rsp
     461:	55                   	push   %rbp
     462:	41 50                	push   %r8
     464:	41 51                	push   %r9
     466:	41 52                	push   %r10
     468:	41 53                	push   %r11
     46a:	41 54                	push   %r12
     46c:	41 55                	push   %r13
     46e:	41 56                	push   %r14
     470:	41 57                	push   %r15
     472:	9c                   	pushfq 
     473:	bf 0f 00 00 00       	mov    $0xf,%edi
     478:	e8 00 00 00 00       	callq  47d <intr_handler_15+0x27>
     47d:	9d                   	popfq  
     47e:	41 5f                	pop    %r15
     480:	41 5e                	pop    %r14
     482:	41 5d                	pop    %r13
     484:	41 5c                	pop    %r12
     486:	41 5b                	pop    %r11
     488:	41 5a                	pop    %r10
     48a:	41 59                	pop    %r9
     48c:	41 58                	pop    %r8
     48e:	5d                   	pop    %rbp
     48f:	48 83 c4 08          	add    $0x8,%rsp
     493:	5e                   	pop    %rsi
     494:	5f                   	pop    %rdi
     495:	5a                   	pop    %rdx
     496:	59                   	pop    %rcx
     497:	5b                   	pop    %rbx
     498:	58                   	pop    %rax
     499:	48 89 6c 24 38       	mov    %rbp,0x38(%rsp)
     49e:	48 cf                	iretq  

00000000000004a0 <intr_handler_16>:
     4a0:	55                   	push   %rbp
     4a1:	48 89 e5             	mov    %rsp,%rbp
     4a4:	50                   	push   %rax
     4a5:	53                   	push   %rbx
     4a6:	51                   	push   %rcx
     4a7:	52                   	push   %rdx
     4a8:	57                   	push   %rdi
     4a9:	56                   	push   %rsi
     4aa:	54                   	push   %rsp
     4ab:	55                   	push   %rbp
     4ac:	41 50                	push   %r8
     4ae:	41 51                	push   %r9
     4b0:	41 52                	push   %r10
     4b2:	41 53                	push   %r11
     4b4:	41 54                	push   %r12
     4b6:	41 55                	push   %r13
     4b8:	41 56                	push   %r14
     4ba:	41 57                	push   %r15
     4bc:	9c                   	pushfq 
     4bd:	bf 10 00 00 00       	mov    $0x10,%edi
     4c2:	e8 00 00 00 00       	callq  4c7 <intr_handler_16+0x27>
     4c7:	9d                   	popfq  
     4c8:	41 5f                	pop    %r15
     4ca:	41 5e                	pop    %r14
     4cc:	41 5d                	pop    %r13
     4ce:	41 5c                	pop    %r12
     4d0:	41 5b                	pop    %r11
     4d2:	41 5a                	pop    %r10
     4d4:	41 59                	pop    %r9
     4d6:	41 58                	pop    %r8
     4d8:	5d                   	pop    %rbp
     4d9:	48 83 c4 08          	add    $0x8,%rsp
     4dd:	5e                   	pop    %rsi
     4de:	5f                   	pop    %rdi
     4df:	5a                   	pop    %rdx
     4e0:	59                   	pop    %rcx
     4e1:	5b                   	pop    %rbx
     4e2:	58                   	pop    %rax
     4e3:	48 89 6c 24 38       	mov    %rbp,0x38(%rsp)
     4e8:	48 cf                	iretq  

00000000000004ea <intr_handler_17>:
     4ea:	55                   	push   %rbp
     4eb:	48 89 e5             	mov    %rsp,%rbp
     4ee:	50                   	push   %rax
     4ef:	53                   	push   %rbx
     4f0:	51                   	push   %rcx
     4f1:	52                   	push   %rdx
     4f2:	57                   	push   %rdi
     4f3:	56                   	push   %rsi
     4f4:	54                   	push   %rsp
     4f5:	55                   	push   %rbp
     4f6:	41 50                	push   %r8
     4f8:	41 51                	push   %r9
     4fa:	41 52                	push   %r10
     4fc:	41 53                	push   %r11
     4fe:	41 54                	push   %r12
     500:	41 55                	push   %r13
     502:	41 56                	push   %r14
     504:	41 57                	push   %r15
     506:	9c                   	pushfq 
     507:	bf 11 00 00 00       	mov    $0x11,%edi
     50c:	e8 00 00 00 00       	callq  511 <intr_handler_17+0x27>
     511:	9d                   	popfq  
     512:	41 5f                	pop    %r15
     514:	41 5e                	pop    %r14
     516:	41 5d                	pop    %r13
     518:	41 5c                	pop    %r12
     51a:	41 5b                	pop    %r11
     51c:	41 5a                	pop    %r10
     51e:	41 59                	pop    %r9
     520:	41 58                	pop    %r8
     522:	5d                   	pop    %rbp
     523:	48 83 c4 08          	add    $0x8,%rsp
     527:	5e                   	pop    %rsi
     528:	5f                   	pop    %rdi
     529:	5a                   	pop    %rdx
     52a:	59                   	pop    %rcx
     52b:	5b                   	pop    %rbx
     52c:	58                   	pop    %rax
     52d:	48 89 6c 24 38       	mov    %rbp,0x38(%rsp)
     532:	48 cf                	iretq  

0000000000000534 <intr_handler_18>:
     534:	55                   	push   %rbp
     535:	48 89 e5             	mov    %rsp,%rbp
     538:	50                   	push   %rax
     539:	53                   	push   %rbx
     53a:	51                   	push   %rcx
     53b:	52                   	push   %rdx
     53c:	57                   	push   %rdi
     53d:	56                   	push   %rsi
     53e:	54                   	push   %rsp
     53f:	55                   	push   %rbp
     540:	41 50                	push   %r8
     542:	41 51                	push   %r9
     544:	41 52                	push   %r10
     546:	41 53                	push   %r11
     548:	41 54                	push   %r12
     54a:	41 55                	push   %r13
     54c:	41 56                	push   %r14
     54e:	41 57                	push   %r15
     550:	9c                   	pushfq 
     551:	bf 12 00 00 00       	mov    $0x12,%edi
     556:	e8 00 00 00 00       	callq  55b <intr_handler_18+0x27>
     55b:	9d                   	popfq  
     55c:	41 5f                	pop    %r15
     55e:	41 5e                	pop    %r14
     560:	41 5d                	pop    %r13
     562:	41 5c                	pop    %r12
     564:	41 5b                	pop    %r11
     566:	41 5a                	pop    %r10
     568:	41 59                	pop    %r9
     56a:	41 58                	pop    %r8
     56c:	5d                   	pop    %rbp
     56d:	48 83 c4 08          	add    $0x8,%rsp
     571:	5e                   	pop    %rsi
     572:	5f                   	pop    %rdi
     573:	5a                   	pop    %rdx
     574:	59                   	pop    %rcx
     575:	5b                   	pop    %rbx
     576:	58                   	pop    %rax
     577:	48 89 6c 24 38       	mov    %rbp,0x38(%rsp)
     57c:	48 cf                	iretq  

000000000000057e <intr_handler_19>:
     57e:	55                   	push   %rbp
     57f:	48 89 e5             	mov    %rsp,%rbp
     582:	50                   	push   %rax
     583:	53                   	push   %rbx
     584:	51                   	push   %rcx
     585:	52                   	push   %rdx
     586:	57                   	push   %rdi
     587:	56                   	push   %rsi
     588:	54                   	push   %rsp
     589:	55                   	push   %rbp
     58a:	41 50                	push   %r8
     58c:	41 51                	push   %r9
     58e:	41 52                	push   %r10
     590:	41 53                	push   %r11
     592:	41 54                	push   %r12
     594:	41 55                	push   %r13
     596:	41 56                	push   %r14
     598:	41 57                	push   %r15
     59a:	9c                   	pushfq 
     59b:	bf 13 00 00 00       	mov    $0x13,%edi
     5a0:	e8 00 00 00 00       	callq  5a5 <intr_handler_19+0x27>
     5a5:	9d                   	popfq  
     5a6:	41 5f                	pop    %r15
     5a8:	41 5e                	pop    %r14
     5aa:	41 5d                	pop    %r13
     5ac:	41 5c                	pop    %r12
     5ae:	41 5b                	pop    %r11
     5b0:	41 5a                	pop    %r10
     5b2:	41 59                	pop    %r9
     5b4:	41 58                	pop    %r8
     5b6:	5d                   	pop    %rbp
     5b7:	48 83 c4 08          	add    $0x8,%rsp
     5bb:	5e                   	pop    %rsi
     5bc:	5f                   	pop    %rdi
     5bd:	5a                   	pop    %rdx
     5be:	59                   	pop    %rcx
     5bf:	5b                   	pop    %rbx
     5c0:	58                   	pop    %rax
     5c1:	48 89 6c 24 38       	mov    %rbp,0x38(%rsp)
     5c6:	48 cf                	iretq  

00000000000005c8 <intr_handler_20>:
     5c8:	55                   	push   %rbp
     5c9:	48 89 e5             	mov    %rsp,%rbp
     5cc:	50                   	push   %rax
     5cd:	53                   	push   %rbx
     5ce:	51                   	push   %rcx
     5cf:	52                   	push   %rdx
     5d0:	57                   	push   %rdi
     5d1:	56                   	push   %rsi
     5d2:	54                   	push   %rsp
     5d3:	55                   	push   %rbp
     5d4:	41 50                	push   %r8
     5d6:	41 51                	push   %r9
     5d8:	41 52                	push   %r10
     5da:	41 53                	push   %r11
     5dc:	41 54                	push   %r12
     5de:	41 55                	push   %r13
     5e0:	41 56                	push   %r14
     5e2:	41 57                	push   %r15
     5e4:	9c                   	pushfq 
     5e5:	bf 14 00 00 00       	mov    $0x14,%edi
     5ea:	e8 00 00 00 00       	callq  5ef <intr_handler_20+0x27>
     5ef:	9d                   	popfq  
     5f0:	41 5f                	pop    %r15
     5f2:	41 5e                	pop    %r14
     5f4:	41 5d                	pop    %r13
     5f6:	41 5c                	pop    %r12
     5f8:	41 5b                	pop    %r11
     5fa:	41 5a                	pop    %r10
     5fc:	41 59                	pop    %r9
     5fe:	41 58                	pop    %r8
     600:	5d                   	pop    %rbp
     601:	48 83 c4 08          	add    $0x8,%rsp
     605:	5e                   	pop    %rsi
     606:	5f                   	pop    %rdi
     607:	5a                   	pop    %rdx
     608:	59                   	pop    %rcx
     609:	5b                   	pop    %rbx
     60a:	58                   	pop    %rax
     60b:	48 89 6c 24 38       	mov    %rbp,0x38(%rsp)
     610:	48 cf                	iretq  

0000000000000612 <intr_handler_21>:
     612:	55                   	push   %rbp
     613:	48 89 e5             	mov    %rsp,%rbp
     616:	50                   	push   %rax
     617:	53                   	push   %rbx
     618:	51                   	push   %rcx
     619:	52                   	push   %rdx
     61a:	57                   	push   %rdi
     61b:	56                   	push   %rsi
     61c:	54                   	push   %rsp
     61d:	55                   	push   %rbp
     61e:	41 50                	push   %r8
     620:	41 51                	push   %r9
     622:	41 52                	push   %r10
     624:	41 53                	push   %r11
     626:	41 54                	push   %r12
     628:	41 55                	push   %r13
     62a:	41 56                	push   %r14
     62c:	41 57                	push   %r15
     62e:	9c                   	pushfq 
     62f:	bf 15 00 00 00       	mov    $0x15,%edi
     634:	e8 00 00 00 00       	callq  639 <intr_handler_21+0x27>
     639:	9d                   	popfq  
     63a:	41 5f                	pop    %r15
     63c:	41 5e                	pop    %r14
     63e:	41 5d                	pop    %r13
     640:	41 5c                	pop    %r12
     642:	41 5b                	pop    %r11
     644:	41 5a                	pop    %r10
     646:	41 59                	pop    %r9
     648:	41 58                	pop    %r8
     64a:	5d                   	pop    %rbp
     64b:	48 83 c4 08          	add    $0x8,%rsp
     64f:	5e                   	pop    %rsi
     650:	5f                   	pop    %rdi
     651:	5a                   	pop    %rdx
     652:	59                   	pop    %rcx
     653:	5b                   	pop    %rbx
     654:	58                   	pop    %rax
     655:	48 89 6c 24 38       	mov    %rbp,0x38(%rsp)
     65a:	48 cf                	iretq  

000000000000065c <intr_handler_22>:
     65c:	55                   	push   %rbp
     65d:	48 89 e5             	mov    %rsp,%rbp
     660:	50                   	push   %rax
     661:	53                   	push   %rbx
     662:	51                   	push   %rcx
     663:	52                   	push   %rdx
     664:	57                   	push   %rdi
     665:	56                   	push   %rsi
     666:	54                   	push   %rsp
     667:	55                   	push   %rbp
     668:	41 50                	push   %r8
     66a:	41 51                	push   %r9
     66c:	41 52                	push   %r10
     66e:	41 53                	push   %r11
     670:	41 54                	push   %r12
     672:	41 55                	push   %r13
     674:	41 56                	push   %r14
     676:	41 57                	push   %r15
     678:	9c                   	pushfq 
     679:	bf 16 00 00 00       	mov    $0x16,%edi
     67e:	e8 00 00 00 00       	callq  683 <intr_handler_22+0x27>
     683:	9d                   	popfq  
     684:	41 5f                	pop    %r15
     686:	41 5e                	pop    %r14
     688:	41 5d                	pop    %r13
     68a:	41 5c                	pop    %r12
     68c:	41 5b                	pop    %r11
     68e:	41 5a                	pop    %r10
     690:	41 59                	pop    %r9
     692:	41 58                	pop    %r8
     694:	5d                   	pop    %rbp
     695:	48 83 c4 08          	add    $0x8,%rsp
     699:	5e                   	pop    %rsi
     69a:	5f                   	pop    %rdi
     69b:	5a                   	pop    %rdx
     69c:	59                   	pop    %rcx
     69d:	5b                   	pop    %rbx
     69e:	58                   	pop    %rax
     69f:	48 89 6c 24 38       	mov    %rbp,0x38(%rsp)
     6a4:	48 cf                	iretq  

00000000000006a6 <intr_handler_23>:
     6a6:	55                   	push   %rbp
     6a7:	48 89 e5             	mov    %rsp,%rbp
     6aa:	50                   	push   %rax
     6ab:	53                   	push   %rbx
     6ac:	51                   	push   %rcx
     6ad:	52                   	push   %rdx
     6ae:	57                   	push   %rdi
     6af:	56                   	push   %rsi
     6b0:	54                   	push   %rsp
     6b1:	55                   	push   %rbp
     6b2:	41 50                	push   %r8
     6b4:	41 51                	push   %r9
     6b6:	41 52                	push   %r10
     6b8:	41 53                	push   %r11
     6ba:	41 54                	push   %r12
     6bc:	41 55                	push   %r13
     6be:	41 56                	push   %r14
     6c0:	41 57                	push   %r15
     6c2:	9c                   	pushfq 
     6c3:	bf 17 00 00 00       	mov    $0x17,%edi
     6c8:	e8 00 00 00 00       	callq  6cd <intr_handler_23+0x27>
     6cd:	9d                   	popfq  
     6ce:	41 5f                	pop    %r15
     6d0:	41 5e                	pop    %r14
     6d2:	41 5d                	pop    %r13
     6d4:	41 5c                	pop    %r12
     6d6:	41 5b                	pop    %r11
     6d8:	41 5a                	pop    %r10
     6da:	41 59                	pop    %r9
     6dc:	41 58                	pop    %r8
     6de:	5d                   	pop    %rbp
     6df:	48 83 c4 08          	add    $0x8,%rsp
     6e3:	5e                   	pop    %rsi
     6e4:	5f                   	pop    %rdi
     6e5:	5a                   	pop    %rdx
     6e6:	59                   	pop    %rcx
     6e7:	5b                   	pop    %rbx
     6e8:	58                   	pop    %rax
     6e9:	48 89 6c 24 38       	mov    %rbp,0x38(%rsp)
     6ee:	48 cf                	iretq  

00000000000006f0 <intr_handler_24>:
     6f0:	55                   	push   %rbp
     6f1:	48 89 e5             	mov    %rsp,%rbp
     6f4:	50                   	push   %rax
     6f5:	53                   	push   %rbx
     6f6:	51                   	push   %rcx
     6f7:	52                   	push   %rdx
     6f8:	57                   	push   %rdi
     6f9:	56                   	push   %rsi
     6fa:	54                   	push   %rsp
     6fb:	55                   	push   %rbp
     6fc:	41 50                	push   %r8
     6fe:	41 51                	push   %r9
     700:	41 52                	push   %r10
     702:	41 53                	push   %r11
     704:	41 54                	push   %r12
     706:	41 55                	push   %r13
     708:	41 56                	push   %r14
     70a:	41 57                	push   %r15
     70c:	9c                   	pushfq 
     70d:	bf 18 00 00 00       	mov    $0x18,%edi
     712:	e8 00 00 00 00       	callq  717 <intr_handler_24+0x27>
     717:	9d                   	popfq  
     718:	41 5f                	pop    %r15
     71a:	41 5e                	pop    %r14
     71c:	41 5d                	pop    %r13
     71e:	41 5c                	pop    %r12
     720:	41 5b                	pop    %r11
     722:	41 5a                	pop    %r10
     724:	41 59                	pop    %r9
     726:	41 58                	pop    %r8
     728:	5d                   	pop    %rbp
     729:	48 83 c4 08          	add    $0x8,%rsp
     72d:	5e                   	pop    %rsi
     72e:	5f                   	pop    %rdi
     72f:	5a                   	pop    %rdx
     730:	59                   	pop    %rcx
     731:	5b                   	pop    %rbx
     732:	58                   	pop    %rax
     733:	48 89 6c 24 38       	mov    %rbp,0x38(%rsp)
     738:	48 cf                	iretq  

000000000000073a <intr_handler_25>:
     73a:	55                   	push   %rbp
     73b:	48 89 e5             	mov    %rsp,%rbp
     73e:	50                   	push   %rax
     73f:	53                   	push   %rbx
     740:	51                   	push   %rcx
     741:	52                   	push   %rdx
     742:	57                   	push   %rdi
     743:	56                   	push   %rsi
     744:	54                   	push   %rsp
     745:	55                   	push   %rbp
     746:	41 50                	push   %r8
     748:	41 51                	push   %r9
     74a:	41 52                	push   %r10
     74c:	41 53                	push   %r11
     74e:	41 54                	push   %r12
     750:	41 55                	push   %r13
     752:	41 56                	push   %r14
     754:	41 57                	push   %r15
     756:	9c                   	pushfq 
     757:	bf 19 00 00 00       	mov    $0x19,%edi
     75c:	e8 00 00 00 00       	callq  761 <intr_handler_25+0x27>
     761:	9d                   	popfq  
     762:	41 5f                	pop    %r15
     764:	41 5e                	pop    %r14
     766:	41 5d                	pop    %r13
     768:	41 5c                	pop    %r12
     76a:	41 5b                	pop    %r11
     76c:	41 5a                	pop    %r10
     76e:	41 59                	pop    %r9
     770:	41 58                	pop    %r8
     772:	5d                   	pop    %rbp
     773:	48 83 c4 08          	add    $0x8,%rsp
     777:	5e                   	pop    %rsi
     778:	5f                   	pop    %rdi
     779:	5a                   	pop    %rdx
     77a:	59                   	pop    %rcx
     77b:	5b                   	pop    %rbx
     77c:	58                   	pop    %rax
     77d:	48 89 6c 24 38       	mov    %rbp,0x38(%rsp)
     782:	48 cf                	iretq  

0000000000000784 <intr_handler_26>:
     784:	55                   	push   %rbp
     785:	48 89 e5             	mov    %rsp,%rbp
     788:	50                   	push   %rax
     789:	53                   	push   %rbx
     78a:	51                   	push   %rcx
     78b:	52                   	push   %rdx
     78c:	57                   	push   %rdi
     78d:	56                   	push   %rsi
     78e:	54                   	push   %rsp
     78f:	55                   	push   %rbp
     790:	41 50                	push   %r8
     792:	41 51                	push   %r9
     794:	41 52                	push   %r10
     796:	41 53                	push   %r11
     798:	41 54                	push   %r12
     79a:	41 55                	push   %r13
     79c:	41 56                	push   %r14
     79e:	41 57                	push   %r15
     7a0:	9c                   	pushfq 
     7a1:	bf 1a 00 00 00       	mov    $0x1a,%edi
     7a6:	e8 00 00 00 00       	callq  7ab <intr_handler_26+0x27>
     7ab:	9d                   	popfq  
     7ac:	41 5f                	pop    %r15
     7ae:	41 5e                	pop    %r14
     7b0:	41 5d                	pop    %r13
     7b2:	41 5c                	pop    %r12
     7b4:	41 5b                	pop    %r11
     7b6:	41 5a                	pop    %r10
     7b8:	41 59                	pop    %r9
     7ba:	41 58                	pop    %r8
     7bc:	5d                   	pop    %rbp
     7bd:	48 83 c4 08          	add    $0x8,%rsp
     7c1:	5e                   	pop    %rsi
     7c2:	5f                   	pop    %rdi
     7c3:	5a                   	pop    %rdx
     7c4:	59                   	pop    %rcx
     7c5:	5b                   	pop    %rbx
     7c6:	58                   	pop    %rax
     7c7:	48 89 6c 24 38       	mov    %rbp,0x38(%rsp)
     7cc:	48 cf                	iretq  

00000000000007ce <intr_handler_27>:
     7ce:	55                   	push   %rbp
     7cf:	48 89 e5             	mov    %rsp,%rbp
     7d2:	50                   	push   %rax
     7d3:	53                   	push   %rbx
     7d4:	51                   	push   %rcx
     7d5:	52                   	push   %rdx
     7d6:	57                   	push   %rdi
     7d7:	56                   	push   %rsi
     7d8:	54                   	push   %rsp
     7d9:	55                   	push   %rbp
     7da:	41 50                	push   %r8
     7dc:	41 51                	push   %r9
     7de:	41 52                	push   %r10
     7e0:	41 53                	push   %r11
     7e2:	41 54                	push   %r12
     7e4:	41 55                	push   %r13
     7e6:	41 56                	push   %r14
     7e8:	41 57                	push   %r15
     7ea:	9c                   	pushfq 
     7eb:	bf 1b 00 00 00       	mov    $0x1b,%edi
     7f0:	e8 00 00 00 00       	callq  7f5 <intr_handler_27+0x27>
     7f5:	9d                   	popfq  
     7f6:	41 5f                	pop    %r15
     7f8:	41 5e                	pop    %r14
     7fa:	41 5d                	pop    %r13
     7fc:	41 5c                	pop    %r12
     7fe:	41 5b                	pop    %r11
     800:	41 5a                	pop    %r10
     802:	41 59                	pop    %r9
     804:	41 58                	pop    %r8
     806:	5d                   	pop    %rbp
     807:	48 83 c4 08          	add    $0x8,%rsp
     80b:	5e                   	pop    %rsi
     80c:	5f                   	pop    %rdi
     80d:	5a                   	pop    %rdx
     80e:	59                   	pop    %rcx
     80f:	5b                   	pop    %rbx
     810:	58                   	pop    %rax
     811:	48 89 6c 24 38       	mov    %rbp,0x38(%rsp)
     816:	48 cf                	iretq  

0000000000000818 <intr_handler_28>:
     818:	55                   	push   %rbp
     819:	48 89 e5             	mov    %rsp,%rbp
     81c:	50                   	push   %rax
     81d:	53                   	push   %rbx
     81e:	51                   	push   %rcx
     81f:	52                   	push   %rdx
     820:	57                   	push   %rdi
     821:	56                   	push   %rsi
     822:	54                   	push   %rsp
     823:	55                   	push   %rbp
     824:	41 50                	push   %r8
     826:	41 51                	push   %r9
     828:	41 52                	push   %r10
     82a:	41 53                	push   %r11
     82c:	41 54                	push   %r12
     82e:	41 55                	push   %r13
     830:	41 56                	push   %r14
     832:	41 57                	push   %r15
     834:	9c                   	pushfq 
     835:	bf 1c 00 00 00       	mov    $0x1c,%edi
     83a:	e8 00 00 00 00       	callq  83f <intr_handler_28+0x27>
     83f:	9d                   	popfq  
     840:	41 5f                	pop    %r15
     842:	41 5e                	pop    %r14
     844:	41 5d                	pop    %r13
     846:	41 5c                	pop    %r12
     848:	41 5b                	pop    %r11
     84a:	41 5a                	pop    %r10
     84c:	41 59                	pop    %r9
     84e:	41 58                	pop    %r8
     850:	5d                   	pop    %rbp
     851:	48 83 c4 08          	add    $0x8,%rsp
     855:	5e                   	pop    %rsi
     856:	5f                   	pop    %rdi
     857:	5a                   	pop    %rdx
     858:	59                   	pop    %rcx
     859:	5b                   	pop    %rbx
     85a:	58                   	pop    %rax
     85b:	48 89 6c 24 38       	mov    %rbp,0x38(%rsp)
     860:	48 cf                	iretq  

0000000000000862 <intr_handler_29>:
     862:	55                   	push   %rbp
     863:	48 89 e5             	mov    %rsp,%rbp
     866:	50                   	push   %rax
     867:	53                   	push   %rbx
     868:	51                   	push   %rcx
     869:	52                   	push   %rdx
     86a:	57                   	push   %rdi
     86b:	56                   	push   %rsi
     86c:	54                   	push   %rsp
     86d:	55                   	push   %rbp
     86e:	41 50                	push   %r8
     870:	41 51                	push   %r9
     872:	41 52                	push   %r10
     874:	41 53                	push   %r11
     876:	41 54                	push   %r12
     878:	41 55                	push   %r13
     87a:	41 56                	push   %r14
     87c:	41 57                	push   %r15
     87e:	9c                   	pushfq 
     87f:	bf 1d 00 00 00       	mov    $0x1d,%edi
     884:	e8 00 00 00 00       	callq  889 <intr_handler_29+0x27>
     889:	9d                   	popfq  
     88a:	41 5f                	pop    %r15
     88c:	41 5e                	pop    %r14
     88e:	41 5d                	pop    %r13
     890:	41 5c                	pop    %r12
     892:	41 5b                	pop    %r11
     894:	41 5a                	pop    %r10
     896:	41 59                	pop    %r9
     898:	41 58                	pop    %r8
     89a:	5d                   	pop    %rbp
     89b:	48 83 c4 08          	add    $0x8,%rsp
     89f:	5e                   	pop    %rsi
     8a0:	5f                   	pop    %rdi
     8a1:	5a                   	pop    %rdx
     8a2:	59                   	pop    %rcx
     8a3:	5b                   	pop    %rbx
     8a4:	58                   	pop    %rax
     8a5:	48 89 6c 24 38       	mov    %rbp,0x38(%rsp)
     8aa:	48 cf                	iretq  

00000000000008ac <intr_handler_30>:
     8ac:	55                   	push   %rbp
     8ad:	48 89 e5             	mov    %rsp,%rbp
     8b0:	50                   	push   %rax
     8b1:	53                   	push   %rbx
     8b2:	51                   	push   %rcx
     8b3:	52                   	push   %rdx
     8b4:	57                   	push   %rdi
     8b5:	56                   	push   %rsi
     8b6:	54                   	push   %rsp
     8b7:	55                   	push   %rbp
     8b8:	41 50                	push   %r8
     8ba:	41 51                	push   %r9
     8bc:	41 52                	push   %r10
     8be:	41 53                	push   %r11
     8c0:	41 54                	push   %r12
     8c2:	41 55                	push   %r13
     8c4:	41 56                	push   %r14
     8c6:	41 57                	push   %r15
     8c8:	9c                   	pushfq 
     8c9:	bf 1e 00 00 00       	mov    $0x1e,%edi
     8ce:	e8 00 00 00 00       	callq  8d3 <intr_handler_30+0x27>
     8d3:	9d                   	popfq  
     8d4:	41 5f                	pop    %r15
     8d6:	41 5e                	pop    %r14
     8d8:	41 5d                	pop    %r13
     8da:	41 5c                	pop    %r12
     8dc:	41 5b                	pop    %r11
     8de:	41 5a                	pop    %r10
     8e0:	41 59                	pop    %r9
     8e2:	41 58                	pop    %r8
     8e4:	5d                   	pop    %rbp
     8e5:	48 83 c4 08          	add    $0x8,%rsp
     8e9:	5e                   	pop    %rsi
     8ea:	5f                   	pop    %rdi
     8eb:	5a                   	pop    %rdx
     8ec:	59                   	pop    %rcx
     8ed:	5b                   	pop    %rbx
     8ee:	58                   	pop    %rax
     8ef:	48 89 6c 24 38       	mov    %rbp,0x38(%rsp)
     8f4:	48 cf                	iretq  

00000000000008f6 <intr_handler_31>:
     8f6:	55                   	push   %rbp
     8f7:	48 89 e5             	mov    %rsp,%rbp
     8fa:	50                   	push   %rax
     8fb:	53                   	push   %rbx
     8fc:	51                   	push   %rcx
     8fd:	52                   	push   %rdx
     8fe:	57                   	push   %rdi
     8ff:	56                   	push   %rsi
     900:	54                   	push   %rsp
     901:	55                   	push   %rbp
     902:	41 50                	push   %r8
     904:	41 51                	push   %r9
     906:	41 52                	push   %r10
     908:	41 53                	push   %r11
     90a:	41 54                	push   %r12
     90c:	41 55                	push   %r13
     90e:	41 56                	push   %r14
     910:	41 57                	push   %r15
     912:	9c                   	pushfq 
     913:	bf 1f 00 00 00       	mov    $0x1f,%edi
     918:	e8 00 00 00 00       	callq  91d <intr_handler_31+0x27>
     91d:	9d                   	popfq  
     91e:	41 5f                	pop    %r15
     920:	41 5e                	pop    %r14
     922:	41 5d                	pop    %r13
     924:	41 5c                	pop    %r12
     926:	41 5b                	pop    %r11
     928:	41 5a                	pop    %r10
     92a:	41 59                	pop    %r9
     92c:	41 58                	pop    %r8
     92e:	5d                   	pop    %rbp
     92f:	48 83 c4 08          	add    $0x8,%rsp
     933:	5e                   	pop    %rsi
     934:	5f                   	pop    %rdi
     935:	5a                   	pop    %rdx
     936:	59                   	pop    %rcx
     937:	5b                   	pop    %rbx
     938:	58                   	pop    %rax
     939:	48 89 6c 24 38       	mov    %rbp,0x38(%rsp)
     93e:	48 cf                	iretq  

0000000000000940 <intr_handler_32>:
     940:	55                   	push   %rbp
     941:	48 89 e5             	mov    %rsp,%rbp
     944:	50                   	push   %rax
     945:	53                   	push   %rbx
     946:	51                   	push   %rcx
     947:	52                   	push   %rdx
     948:	57                   	push   %rdi
     949:	56                   	push   %rsi
     94a:	54                   	push   %rsp
     94b:	55                   	push   %rbp
     94c:	41 50                	push   %r8
     94e:	41 51                	push   %r9
     950:	41 52                	push   %r10
     952:	41 53                	push   %r11
     954:	41 54                	push   %r12
     956:	41 55                	push   %r13
     958:	41 56                	push   %r14
     95a:	41 57                	push   %r15
     95c:	9c                   	pushfq 
     95d:	bf 20 00 00 00       	mov    $0x20,%edi
     962:	e8 00 00 00 00       	callq  967 <intr_handler_32+0x27>
     967:	9d                   	popfq  
     968:	41 5f                	pop    %r15
     96a:	41 5e                	pop    %r14
     96c:	41 5d                	pop    %r13
     96e:	41 5c                	pop    %r12
     970:	41 5b                	pop    %r11
     972:	41 5a                	pop    %r10
     974:	41 59                	pop    %r9
     976:	41 58                	pop    %r8
     978:	5d                   	pop    %rbp
     979:	48 83 c4 08          	add    $0x8,%rsp
     97d:	5e                   	pop    %rsi
     97e:	5f                   	pop    %rdi
     97f:	5a                   	pop    %rdx
     980:	59                   	pop    %rcx
     981:	5b                   	pop    %rbx
     982:	58                   	pop    %rax
     983:	48 89 6c 24 38       	mov    %rbp,0x38(%rsp)
     988:	48 cf                	iretq  

000000000000098a <intr_handler_33>:
     98a:	55                   	push   %rbp
     98b:	48 89 e5             	mov    %rsp,%rbp
     98e:	50                   	push   %rax
     98f:	53                   	push   %rbx
     990:	51                   	push   %rcx
     991:	52                   	push   %rdx
     992:	57                   	push   %rdi
     993:	56                   	push   %rsi
     994:	54                   	push   %rsp
     995:	55                   	push   %rbp
     996:	41 50                	push   %r8
     998:	41 51                	push   %r9
     99a:	41 52                	push   %r10
     99c:	41 53                	push   %r11
     99e:	41 54                	push   %r12
     9a0:	41 55                	push   %r13
     9a2:	41 56                	push   %r14
     9a4:	41 57                	push   %r15
     9a6:	9c                   	pushfq 
     9a7:	bf 21 00 00 00       	mov    $0x21,%edi
     9ac:	e8 00 00 00 00       	callq  9b1 <intr_handler_33+0x27>
     9b1:	9d                   	popfq  
     9b2:	41 5f                	pop    %r15
     9b4:	41 5e                	pop    %r14
     9b6:	41 5d                	pop    %r13
     9b8:	41 5c                	pop    %r12
     9ba:	41 5b                	pop    %r11
     9bc:	41 5a                	pop    %r10
     9be:	41 59                	pop    %r9
     9c0:	41 58                	pop    %r8
     9c2:	5d                   	pop    %rbp
     9c3:	48 83 c4 08          	add    $0x8,%rsp
     9c7:	5e                   	pop    %rsi
     9c8:	5f                   	pop    %rdi
     9c9:	5a                   	pop    %rdx
     9ca:	59                   	pop    %rcx
     9cb:	5b                   	pop    %rbx
     9cc:	58                   	pop    %rax
     9cd:	48 89 6c 24 38       	mov    %rbp,0x38(%rsp)
     9d2:	48 cf                	iretq  

00000000000009d4 <intr_handler_34>:
     9d4:	55                   	push   %rbp
     9d5:	48 89 e5             	mov    %rsp,%rbp
     9d8:	50                   	push   %rax
     9d9:	53                   	push   %rbx
     9da:	51                   	push   %rcx
     9db:	52                   	push   %rdx
     9dc:	57                   	push   %rdi
     9dd:	56                   	push   %rsi
     9de:	54                   	push   %rsp
     9df:	55                   	push   %rbp
     9e0:	41 50                	push   %r8
     9e2:	41 51                	push   %r9
     9e4:	41 52                	push   %r10
     9e6:	41 53                	push   %r11
     9e8:	41 54                	push   %r12
     9ea:	41 55                	push   %r13
     9ec:	41 56                	push   %r14
     9ee:	41 57                	push   %r15
     9f0:	9c                   	pushfq 
     9f1:	bf 22 00 00 00       	mov    $0x22,%edi
     9f6:	e8 00 00 00 00       	callq  9fb <intr_handler_34+0x27>
     9fb:	9d                   	popfq  
     9fc:	41 5f                	pop    %r15
     9fe:	41 5e                	pop    %r14
     a00:	41 5d                	pop    %r13
     a02:	41 5c                	pop    %r12
     a04:	41 5b                	pop    %r11
     a06:	41 5a                	pop    %r10
     a08:	41 59                	pop    %r9
     a0a:	41 58                	pop    %r8
     a0c:	5d                   	pop    %rbp
     a0d:	48 83 c4 08          	add    $0x8,%rsp
     a11:	5e                   	pop    %rsi
     a12:	5f                   	pop    %rdi
     a13:	5a                   	pop    %rdx
     a14:	59                   	pop    %rcx
     a15:	5b                   	pop    %rbx
     a16:	58                   	pop    %rax
     a17:	48 89 6c 24 38       	mov    %rbp,0x38(%rsp)
     a1c:	48 cf                	iretq  

0000000000000a1e <intr_handler_35>:
     a1e:	55                   	push   %rbp
     a1f:	48 89 e5             	mov    %rsp,%rbp
     a22:	50                   	push   %rax
     a23:	53                   	push   %rbx
     a24:	51                   	push   %rcx
     a25:	52                   	push   %rdx
     a26:	57                   	push   %rdi
     a27:	56                   	push   %rsi
     a28:	54                   	push   %rsp
     a29:	55                   	push   %rbp
     a2a:	41 50                	push   %r8
     a2c:	41 51                	push   %r9
     a2e:	41 52                	push   %r10
     a30:	41 53                	push   %r11
     a32:	41 54                	push   %r12
     a34:	41 55                	push   %r13
     a36:	41 56                	push   %r14
     a38:	41 57                	push   %r15
     a3a:	9c                   	pushfq 
     a3b:	bf 23 00 00 00       	mov    $0x23,%edi
     a40:	e8 00 00 00 00       	callq  a45 <intr_handler_35+0x27>
     a45:	9d                   	popfq  
     a46:	41 5f                	pop    %r15
     a48:	41 5e                	pop    %r14
     a4a:	41 5d                	pop    %r13
     a4c:	41 5c                	pop    %r12
     a4e:	41 5b                	pop    %r11
     a50:	41 5a                	pop    %r10
     a52:	41 59                	pop    %r9
     a54:	41 58                	pop    %r8
     a56:	5d                   	pop    %rbp
     a57:	48 83 c4 08          	add    $0x8,%rsp
     a5b:	5e                   	pop    %rsi
     a5c:	5f                   	pop    %rdi
     a5d:	5a                   	pop    %rdx
     a5e:	59                   	pop    %rcx
     a5f:	5b                   	pop    %rbx
     a60:	58                   	pop    %rax
     a61:	48 89 6c 24 38       	mov    %rbp,0x38(%rsp)
     a66:	48 cf                	iretq  

0000000000000a68 <intr_handler_36>:
     a68:	55                   	push   %rbp
     a69:	48 89 e5             	mov    %rsp,%rbp
     a6c:	50                   	push   %rax
     a6d:	53                   	push   %rbx
     a6e:	51                   	push   %rcx
     a6f:	52                   	push   %rdx
     a70:	57                   	push   %rdi
     a71:	56                   	push   %rsi
     a72:	54                   	push   %rsp
     a73:	55                   	push   %rbp
     a74:	41 50                	push   %r8
     a76:	41 51                	push   %r9
     a78:	41 52                	push   %r10
     a7a:	41 53                	push   %r11
     a7c:	41 54                	push   %r12
     a7e:	41 55                	push   %r13
     a80:	41 56                	push   %r14
     a82:	41 57                	push   %r15
     a84:	9c                   	pushfq 
     a85:	bf 24 00 00 00       	mov    $0x24,%edi
     a8a:	e8 00 00 00 00       	callq  a8f <intr_handler_36+0x27>
     a8f:	9d                   	popfq  
     a90:	41 5f                	pop    %r15
     a92:	41 5e                	pop    %r14
     a94:	41 5d                	pop    %r13
     a96:	41 5c                	pop    %r12
     a98:	41 5b                	pop    %r11
     a9a:	41 5a                	pop    %r10
     a9c:	41 59                	pop    %r9
     a9e:	41 58                	pop    %r8
     aa0:	5d                   	pop    %rbp
     aa1:	48 83 c4 08          	add    $0x8,%rsp
     aa5:	5e                   	pop    %rsi
     aa6:	5f                   	pop    %rdi
     aa7:	5a                   	pop    %rdx
     aa8:	59                   	pop    %rcx
     aa9:	5b                   	pop    %rbx
     aaa:	58                   	pop    %rax
     aab:	48 89 6c 24 38       	mov    %rbp,0x38(%rsp)
     ab0:	48 cf                	iretq  

0000000000000ab2 <intr_handler_37>:
     ab2:	55                   	push   %rbp
     ab3:	48 89 e5             	mov    %rsp,%rbp
     ab6:	50                   	push   %rax
     ab7:	53                   	push   %rbx
     ab8:	51                   	push   %rcx
     ab9:	52                   	push   %rdx
     aba:	57                   	push   %rdi
     abb:	56                   	push   %rsi
     abc:	54                   	push   %rsp
     abd:	55                   	push   %rbp
     abe:	41 50                	push   %r8
     ac0:	41 51                	push   %r9
     ac2:	41 52                	push   %r10
     ac4:	41 53                	push   %r11
     ac6:	41 54                	push   %r12
     ac8:	41 55                	push   %r13
     aca:	41 56                	push   %r14
     acc:	41 57                	push   %r15
     ace:	9c                   	pushfq 
     acf:	bf 25 00 00 00       	mov    $0x25,%edi
     ad4:	e8 00 00 00 00       	callq  ad9 <intr_handler_37+0x27>
     ad9:	9d                   	popfq  
     ada:	41 5f                	pop    %r15
     adc:	41 5e                	pop    %r14
     ade:	41 5d                	pop    %r13
     ae0:	41 5c                	pop    %r12
     ae2:	41 5b                	pop    %r11
     ae4:	41 5a                	pop    %r10
     ae6:	41 59                	pop    %r9
     ae8:	41 58                	pop    %r8
     aea:	5d                   	pop    %rbp
     aeb:	48 83 c4 08          	add    $0x8,%rsp
     aef:	5e                   	pop    %rsi
     af0:	5f                   	pop    %rdi
     af1:	5a                   	pop    %rdx
     af2:	59                   	pop    %rcx
     af3:	5b                   	pop    %rbx
     af4:	58                   	pop    %rax
     af5:	48 89 6c 24 38       	mov    %rbp,0x38(%rsp)
     afa:	48 cf                	iretq  

0000000000000afc <intr_handler_38>:
     afc:	55                   	push   %rbp
     afd:	48 89 e5             	mov    %rsp,%rbp
     b00:	50                   	push   %rax
     b01:	53                   	push   %rbx
     b02:	51                   	push   %rcx
     b03:	52                   	push   %rdx
     b04:	57                   	push   %rdi
     b05:	56                   	push   %rsi
     b06:	54                   	push   %rsp
     b07:	55                   	push   %rbp
     b08:	41 50                	push   %r8
     b0a:	41 51                	push   %r9
     b0c:	41 52                	push   %r10
     b0e:	41 53                	push   %r11
     b10:	41 54                	push   %r12
     b12:	41 55                	push   %r13
     b14:	41 56                	push   %r14
     b16:	41 57                	push   %r15
     b18:	9c                   	pushfq 
     b19:	bf 26 00 00 00       	mov    $0x26,%edi
     b1e:	e8 00 00 00 00       	callq  b23 <intr_handler_38+0x27>
     b23:	9d                   	popfq  
     b24:	41 5f                	pop    %r15
     b26:	41 5e                	pop    %r14
     b28:	41 5d                	pop    %r13
     b2a:	41 5c                	pop    %r12
     b2c:	41 5b                	pop    %r11
     b2e:	41 5a                	pop    %r10
     b30:	41 59                	pop    %r9
     b32:	41 58                	pop    %r8
     b34:	5d                   	pop    %rbp
     b35:	48 83 c4 08          	add    $0x8,%rsp
     b39:	5e                   	pop    %rsi
     b3a:	5f                   	pop    %rdi
     b3b:	5a                   	pop    %rdx
     b3c:	59                   	pop    %rcx
     b3d:	5b                   	pop    %rbx
     b3e:	58                   	pop    %rax
     b3f:	48 89 6c 24 38       	mov    %rbp,0x38(%rsp)
     b44:	48 cf                	iretq  

0000000000000b46 <intr_handler_39>:
     b46:	55                   	push   %rbp
     b47:	48 89 e5             	mov    %rsp,%rbp
     b4a:	50                   	push   %rax
     b4b:	53                   	push   %rbx
     b4c:	51                   	push   %rcx
     b4d:	52                   	push   %rdx
     b4e:	57                   	push   %rdi
     b4f:	56                   	push   %rsi
     b50:	54                   	push   %rsp
     b51:	55                   	push   %rbp
     b52:	41 50                	push   %r8
     b54:	41 51                	push   %r9
     b56:	41 52                	push   %r10
     b58:	41 53                	push   %r11
     b5a:	41 54                	push   %r12
     b5c:	41 55                	push   %r13
     b5e:	41 56                	push   %r14
     b60:	41 57                	push   %r15
     b62:	9c                   	pushfq 
     b63:	bf 27 00 00 00       	mov    $0x27,%edi
     b68:	e8 00 00 00 00       	callq  b6d <intr_handler_39+0x27>
     b6d:	9d                   	popfq  
     b6e:	41 5f                	pop    %r15
     b70:	41 5e                	pop    %r14
     b72:	41 5d                	pop    %r13
     b74:	41 5c                	pop    %r12
     b76:	41 5b                	pop    %r11
     b78:	41 5a                	pop    %r10
     b7a:	41 59                	pop    %r9
     b7c:	41 58                	pop    %r8
     b7e:	5d                   	pop    %rbp
     b7f:	48 83 c4 08          	add    $0x8,%rsp
     b83:	5e                   	pop    %rsi
     b84:	5f                   	pop    %rdi
     b85:	5a                   	pop    %rdx
     b86:	59                   	pop    %rcx
     b87:	5b                   	pop    %rbx
     b88:	58                   	pop    %rax
     b89:	48 89 6c 24 38       	mov    %rbp,0x38(%rsp)
     b8e:	48 cf                	iretq  

0000000000000b90 <intr_handler_40>:
     b90:	55                   	push   %rbp
     b91:	48 89 e5             	mov    %rsp,%rbp
     b94:	50                   	push   %rax
     b95:	53                   	push   %rbx
     b96:	51                   	push   %rcx
     b97:	52                   	push   %rdx
     b98:	57                   	push   %rdi
     b99:	56                   	push   %rsi
     b9a:	54                   	push   %rsp
     b9b:	55                   	push   %rbp
     b9c:	41 50                	push   %r8
     b9e:	41 51                	push   %r9
     ba0:	41 52                	push   %r10
     ba2:	41 53                	push   %r11
     ba4:	41 54                	push   %r12
     ba6:	41 55                	push   %r13
     ba8:	41 56                	push   %r14
     baa:	41 57                	push   %r15
     bac:	9c                   	pushfq 
     bad:	bf 28 00 00 00       	mov    $0x28,%edi
     bb2:	e8 00 00 00 00       	callq  bb7 <intr_handler_40+0x27>
     bb7:	9d                   	popfq  
     bb8:	41 5f                	pop    %r15
     bba:	41 5e                	pop    %r14
     bbc:	41 5d                	pop    %r13
     bbe:	41 5c                	pop    %r12
     bc0:	41 5b                	pop    %r11
     bc2:	41 5a                	pop    %r10
     bc4:	41 59                	pop    %r9
     bc6:	41 58                	pop    %r8
     bc8:	5d                   	pop    %rbp
     bc9:	48 83 c4 08          	add    $0x8,%rsp
     bcd:	5e                   	pop    %rsi
     bce:	5f                   	pop    %rdi
     bcf:	5a                   	pop    %rdx
     bd0:	59                   	pop    %rcx
     bd1:	5b                   	pop    %rbx
     bd2:	58                   	pop    %rax
     bd3:	48 89 6c 24 38       	mov    %rbp,0x38(%rsp)
     bd8:	48 cf                	iretq  

0000000000000bda <intr_handler_41>:
     bda:	55                   	push   %rbp
     bdb:	48 89 e5             	mov    %rsp,%rbp
     bde:	50                   	push   %rax
     bdf:	53                   	push   %rbx
     be0:	51                   	push   %rcx
     be1:	52                   	push   %rdx
     be2:	57                   	push   %rdi
     be3:	56                   	push   %rsi
     be4:	54                   	push   %rsp
     be5:	55                   	push   %rbp
     be6:	41 50                	push   %r8
     be8:	41 51                	push   %r9
     bea:	41 52                	push   %r10
     bec:	41 53                	push   %r11
     bee:	41 54                	push   %r12
     bf0:	41 55                	push   %r13
     bf2:	41 56                	push   %r14
     bf4:	41 57                	push   %r15
     bf6:	9c                   	pushfq 
     bf7:	bf 29 00 00 00       	mov    $0x29,%edi
     bfc:	e8 00 00 00 00       	callq  c01 <intr_handler_41+0x27>
     c01:	9d                   	popfq  
     c02:	41 5f                	pop    %r15
     c04:	41 5e                	pop    %r14
     c06:	41 5d                	pop    %r13
     c08:	41 5c                	pop    %r12
     c0a:	41 5b                	pop    %r11
     c0c:	41 5a                	pop    %r10
     c0e:	41 59                	pop    %r9
     c10:	41 58                	pop    %r8
     c12:	5d                   	pop    %rbp
     c13:	48 83 c4 08          	add    $0x8,%rsp
     c17:	5e                   	pop    %rsi
     c18:	5f                   	pop    %rdi
     c19:	5a                   	pop    %rdx
     c1a:	59                   	pop    %rcx
     c1b:	5b                   	pop    %rbx
     c1c:	58                   	pop    %rax
     c1d:	48 89 6c 24 38       	mov    %rbp,0x38(%rsp)
     c22:	48 cf                	iretq  

0000000000000c24 <intr_handler_42>:
     c24:	55                   	push   %rbp
     c25:	48 89 e5             	mov    %rsp,%rbp
     c28:	50                   	push   %rax
     c29:	53                   	push   %rbx
     c2a:	51                   	push   %rcx
     c2b:	52                   	push   %rdx
     c2c:	57                   	push   %rdi
     c2d:	56                   	push   %rsi
     c2e:	54                   	push   %rsp
     c2f:	55                   	push   %rbp
     c30:	41 50                	push   %r8
     c32:	41 51                	push   %r9
     c34:	41 52                	push   %r10
     c36:	41 53                	push   %r11
     c38:	41 54                	push   %r12
     c3a:	41 55                	push   %r13
     c3c:	41 56                	push   %r14
     c3e:	41 57                	push   %r15
     c40:	9c                   	pushfq 
     c41:	bf 2a 00 00 00       	mov    $0x2a,%edi
     c46:	e8 00 00 00 00       	callq  c4b <intr_handler_42+0x27>
     c4b:	9d                   	popfq  
     c4c:	41 5f                	pop    %r15
     c4e:	41 5e                	pop    %r14
     c50:	41 5d                	pop    %r13
     c52:	41 5c                	pop    %r12
     c54:	41 5b                	pop    %r11
     c56:	41 5a                	pop    %r10
     c58:	41 59                	pop    %r9
     c5a:	41 58                	pop    %r8
     c5c:	5d                   	pop    %rbp
     c5d:	48 83 c4 08          	add    $0x8,%rsp
     c61:	5e                   	pop    %rsi
     c62:	5f                   	pop    %rdi
     c63:	5a                   	pop    %rdx
     c64:	59                   	pop    %rcx
     c65:	5b                   	pop    %rbx
     c66:	58                   	pop    %rax
     c67:	48 89 6c 24 38       	mov    %rbp,0x38(%rsp)
     c6c:	48 cf                	iretq  

0000000000000c6e <intr_handler_43>:
     c6e:	55                   	push   %rbp
     c6f:	48 89 e5             	mov    %rsp,%rbp
     c72:	50                   	push   %rax
     c73:	53                   	push   %rbx
     c74:	51                   	push   %rcx
     c75:	52                   	push   %rdx
     c76:	57                   	push   %rdi
     c77:	56                   	push   %rsi
     c78:	54                   	push   %rsp
     c79:	55                   	push   %rbp
     c7a:	41 50                	push   %r8
     c7c:	41 51                	push   %r9
     c7e:	41 52                	push   %r10
     c80:	41 53                	push   %r11
     c82:	41 54                	push   %r12
     c84:	41 55                	push   %r13
     c86:	41 56                	push   %r14
     c88:	41 57                	push   %r15
     c8a:	9c                   	pushfq 
     c8b:	bf 2b 00 00 00       	mov    $0x2b,%edi
     c90:	e8 00 00 00 00       	callq  c95 <intr_handler_43+0x27>
     c95:	9d                   	popfq  
     c96:	41 5f                	pop    %r15
     c98:	41 5e                	pop    %r14
     c9a:	41 5d                	pop    %r13
     c9c:	41 5c                	pop    %r12
     c9e:	41 5b                	pop    %r11
     ca0:	41 5a                	pop    %r10
     ca2:	41 59                	pop    %r9
     ca4:	41 58                	pop    %r8
     ca6:	5d                   	pop    %rbp
     ca7:	48 83 c4 08          	add    $0x8,%rsp
     cab:	5e                   	pop    %rsi
     cac:	5f                   	pop    %rdi
     cad:	5a                   	pop    %rdx
     cae:	59                   	pop    %rcx
     caf:	5b                   	pop    %rbx
     cb0:	58                   	pop    %rax
     cb1:	48 89 6c 24 38       	mov    %rbp,0x38(%rsp)
     cb6:	48 cf                	iretq  

0000000000000cb8 <intr_handler_44>:
     cb8:	55                   	push   %rbp
     cb9:	48 89 e5             	mov    %rsp,%rbp
     cbc:	50                   	push   %rax
     cbd:	53                   	push   %rbx
     cbe:	51                   	push   %rcx
     cbf:	52                   	push   %rdx
     cc0:	57                   	push   %rdi
     cc1:	56                   	push   %rsi
     cc2:	54                   	push   %rsp
     cc3:	55                   	push   %rbp
     cc4:	41 50                	push   %r8
     cc6:	41 51                	push   %r9
     cc8:	41 52                	push   %r10
     cca:	41 53                	push   %r11
     ccc:	41 54                	push   %r12
     cce:	41 55                	push   %r13
     cd0:	41 56                	push   %r14
     cd2:	41 57                	push   %r15
     cd4:	9c                   	pushfq 
     cd5:	bf 2c 00 00 00       	mov    $0x2c,%edi
     cda:	e8 00 00 00 00       	callq  cdf <intr_handler_44+0x27>
     cdf:	9d                   	popfq  
     ce0:	41 5f                	pop    %r15
     ce2:	41 5e                	pop    %r14
     ce4:	41 5d                	pop    %r13
     ce6:	41 5c                	pop    %r12
     ce8:	41 5b                	pop    %r11
     cea:	41 5a                	pop    %r10
     cec:	41 59                	pop    %r9
     cee:	41 58                	pop    %r8
     cf0:	5d                   	pop    %rbp
     cf1:	48 83 c4 08          	add    $0x8,%rsp
     cf5:	5e                   	pop    %rsi
     cf6:	5f                   	pop    %rdi
     cf7:	5a                   	pop    %rdx
     cf8:	59                   	pop    %rcx
     cf9:	5b                   	pop    %rbx
     cfa:	58                   	pop    %rax
     cfb:	48 89 6c 24 38       	mov    %rbp,0x38(%rsp)
     d00:	48 cf                	iretq  

0000000000000d02 <intr_handler_45>:
     d02:	55                   	push   %rbp
     d03:	48 89 e5             	mov    %rsp,%rbp
     d06:	50                   	push   %rax
     d07:	53                   	push   %rbx
     d08:	51                   	push   %rcx
     d09:	52                   	push   %rdx
     d0a:	57                   	push   %rdi
     d0b:	56                   	push   %rsi
     d0c:	54                   	push   %rsp
     d0d:	55                   	push   %rbp
     d0e:	41 50                	push   %r8
     d10:	41 51                	push   %r9
     d12:	41 52                	push   %r10
     d14:	41 53                	push   %r11
     d16:	41 54                	push   %r12
     d18:	41 55                	push   %r13
     d1a:	41 56                	push   %r14
     d1c:	41 57                	push   %r15
     d1e:	9c                   	pushfq 
     d1f:	bf 2d 00 00 00       	mov    $0x2d,%edi
     d24:	e8 00 00 00 00       	callq  d29 <intr_handler_45+0x27>
     d29:	9d                   	popfq  
     d2a:	41 5f                	pop    %r15
     d2c:	41 5e                	pop    %r14
     d2e:	41 5d                	pop    %r13
     d30:	41 5c                	pop    %r12
     d32:	41 5b                	pop    %r11
     d34:	41 5a                	pop    %r10
     d36:	41 59                	pop    %r9
     d38:	41 58                	pop    %r8
     d3a:	5d                   	pop    %rbp
     d3b:	48 83 c4 08          	add    $0x8,%rsp
     d3f:	5e                   	pop    %rsi
     d40:	5f                   	pop    %rdi
     d41:	5a                   	pop    %rdx
     d42:	59                   	pop    %rcx
     d43:	5b                   	pop    %rbx
     d44:	58                   	pop    %rax
     d45:	48 89 6c 24 38       	mov    %rbp,0x38(%rsp)
     d4a:	48 cf                	iretq  

0000000000000d4c <intr_handler_46>:
     d4c:	55                   	push   %rbp
     d4d:	48 89 e5             	mov    %rsp,%rbp
     d50:	50                   	push   %rax
     d51:	53                   	push   %rbx
     d52:	51                   	push   %rcx
     d53:	52                   	push   %rdx
     d54:	57                   	push   %rdi
     d55:	56                   	push   %rsi
     d56:	54                   	push   %rsp
     d57:	55                   	push   %rbp
     d58:	41 50                	push   %r8
     d5a:	41 51                	push   %r9
     d5c:	41 52                	push   %r10
     d5e:	41 53                	push   %r11
     d60:	41 54                	push   %r12
     d62:	41 55                	push   %r13
     d64:	41 56                	push   %r14
     d66:	41 57                	push   %r15
     d68:	9c                   	pushfq 
     d69:	bf 2e 00 00 00       	mov    $0x2e,%edi
     d6e:	e8 00 00 00 00       	callq  d73 <intr_handler_46+0x27>
     d73:	9d                   	popfq  
     d74:	41 5f                	pop    %r15
     d76:	41 5e                	pop    %r14
     d78:	41 5d                	pop    %r13
     d7a:	41 5c                	pop    %r12
     d7c:	41 5b                	pop    %r11
     d7e:	41 5a                	pop    %r10
     d80:	41 59                	pop    %r9
     d82:	41 58                	pop    %r8
     d84:	5d                   	pop    %rbp
     d85:	48 83 c4 08          	add    $0x8,%rsp
     d89:	5e                   	pop    %rsi
     d8a:	5f                   	pop    %rdi
     d8b:	5a                   	pop    %rdx
     d8c:	59                   	pop    %rcx
     d8d:	5b                   	pop    %rbx
     d8e:	58                   	pop    %rax
     d8f:	48 89 6c 24 38       	mov    %rbp,0x38(%rsp)
     d94:	48 cf                	iretq  

0000000000000d96 <intr_handler_47>:
     d96:	55                   	push   %rbp
     d97:	48 89 e5             	mov    %rsp,%rbp
     d9a:	50                   	push   %rax
     d9b:	53                   	push   %rbx
     d9c:	51                   	push   %rcx
     d9d:	52                   	push   %rdx
     d9e:	57                   	push   %rdi
     d9f:	56                   	push   %rsi
     da0:	54                   	push   %rsp
     da1:	55                   	push   %rbp
     da2:	41 50                	push   %r8
     da4:	41 51                	push   %r9
     da6:	41 52                	push   %r10
     da8:	41 53                	push   %r11
     daa:	41 54                	push   %r12
     dac:	41 55                	push   %r13
     dae:	41 56                	push   %r14
     db0:	41 57                	push   %r15
     db2:	9c                   	pushfq 
     db3:	bf 2f 00 00 00       	mov    $0x2f,%edi
     db8:	e8 00 00 00 00       	callq  dbd <intr_handler_47+0x27>
     dbd:	9d                   	popfq  
     dbe:	41 5f                	pop    %r15
     dc0:	41 5e                	pop    %r14
     dc2:	41 5d                	pop    %r13
     dc4:	41 5c                	pop    %r12
     dc6:	41 5b                	pop    %r11
     dc8:	41 5a                	pop    %r10
     dca:	41 59                	pop    %r9
     dcc:	41 58                	pop    %r8
     dce:	5d                   	pop    %rbp
     dcf:	48 83 c4 08          	add    $0x8,%rsp
     dd3:	5e                   	pop    %rsi
     dd4:	5f                   	pop    %rdi
     dd5:	5a                   	pop    %rdx
     dd6:	59                   	pop    %rcx
     dd7:	5b                   	pop    %rbx
     dd8:	58                   	pop    %rax
     dd9:	48 89 6c 24 38       	mov    %rbp,0x38(%rsp)
     dde:	48 cf                	iretq  

0000000000000de0 <intr_handler_48>:
     de0:	55                   	push   %rbp
     de1:	48 89 e5             	mov    %rsp,%rbp
     de4:	50                   	push   %rax
     de5:	53                   	push   %rbx
     de6:	51                   	push   %rcx
     de7:	52                   	push   %rdx
     de8:	57                   	push   %rdi
     de9:	56                   	push   %rsi
     dea:	54                   	push   %rsp
     deb:	55                   	push   %rbp
     dec:	41 50                	push   %r8
     dee:	41 51                	push   %r9
     df0:	41 52                	push   %r10
     df2:	41 53                	push   %r11
     df4:	41 54                	push   %r12
     df6:	41 55                	push   %r13
     df8:	41 56                	push   %r14
     dfa:	41 57                	push   %r15
     dfc:	9c                   	pushfq 
     dfd:	bf 30 00 00 00       	mov    $0x30,%edi
     e02:	e8 00 00 00 00       	callq  e07 <intr_handler_48+0x27>
     e07:	9d                   	popfq  
     e08:	41 5f                	pop    %r15
     e0a:	41 5e                	pop    %r14
     e0c:	41 5d                	pop    %r13
     e0e:	41 5c                	pop    %r12
     e10:	41 5b                	pop    %r11
     e12:	41 5a                	pop    %r10
     e14:	41 59                	pop    %r9
     e16:	41 58                	pop    %r8
     e18:	5d                   	pop    %rbp
     e19:	48 83 c4 08          	add    $0x8,%rsp
     e1d:	5e                   	pop    %rsi
     e1e:	5f                   	pop    %rdi
     e1f:	5a                   	pop    %rdx
     e20:	59                   	pop    %rcx
     e21:	5b                   	pop    %rbx
     e22:	58                   	pop    %rax
     e23:	48 89 6c 24 38       	mov    %rbp,0x38(%rsp)
     e28:	48 cf                	iretq  

0000000000000e2a <intr_handler_49>:
     e2a:	55                   	push   %rbp
     e2b:	48 89 e5             	mov    %rsp,%rbp
     e2e:	50                   	push   %rax
     e2f:	53                   	push   %rbx
     e30:	51                   	push   %rcx
     e31:	52                   	push   %rdx
     e32:	57                   	push   %rdi
     e33:	56                   	push   %rsi
     e34:	54                   	push   %rsp
     e35:	55                   	push   %rbp
     e36:	41 50                	push   %r8
     e38:	41 51                	push   %r9
     e3a:	41 52                	push   %r10
     e3c:	41 53                	push   %r11
     e3e:	41 54                	push   %r12
     e40:	41 55                	push   %r13
     e42:	41 56                	push   %r14
     e44:	41 57                	push   %r15
     e46:	9c                   	pushfq 
     e47:	bf 31 00 00 00       	mov    $0x31,%edi
     e4c:	e8 00 00 00 00       	callq  e51 <intr_handler_49+0x27>
     e51:	9d                   	popfq  
     e52:	41 5f                	pop    %r15
     e54:	41 5e                	pop    %r14
     e56:	41 5d                	pop    %r13
     e58:	41 5c                	pop    %r12
     e5a:	41 5b                	pop    %r11
     e5c:	41 5a                	pop    %r10
     e5e:	41 59                	pop    %r9
     e60:	41 58                	pop    %r8
     e62:	5d                   	pop    %rbp
     e63:	48 83 c4 08          	add    $0x8,%rsp
     e67:	5e                   	pop    %rsi
     e68:	5f                   	pop    %rdi
     e69:	5a                   	pop    %rdx
     e6a:	59                   	pop    %rcx
     e6b:	5b                   	pop    %rbx
     e6c:	58                   	pop    %rax
     e6d:	48 89 6c 24 38       	mov    %rbp,0x38(%rsp)
     e72:	48 cf                	iretq  

0000000000000e74 <intr_handler_50>:
     e74:	55                   	push   %rbp
     e75:	48 89 e5             	mov    %rsp,%rbp
     e78:	50                   	push   %rax
     e79:	53                   	push   %rbx
     e7a:	51                   	push   %rcx
     e7b:	52                   	push   %rdx
     e7c:	57                   	push   %rdi
     e7d:	56                   	push   %rsi
     e7e:	54                   	push   %rsp
     e7f:	55                   	push   %rbp
     e80:	41 50                	push   %r8
     e82:	41 51                	push   %r9
     e84:	41 52                	push   %r10
     e86:	41 53                	push   %r11
     e88:	41 54                	push   %r12
     e8a:	41 55                	push   %r13
     e8c:	41 56                	push   %r14
     e8e:	41 57                	push   %r15
     e90:	9c                   	pushfq 
     e91:	bf 32 00 00 00       	mov    $0x32,%edi
     e96:	e8 00 00 00 00       	callq  e9b <intr_handler_50+0x27>
     e9b:	9d                   	popfq  
     e9c:	41 5f                	pop    %r15
     e9e:	41 5e                	pop    %r14
     ea0:	41 5d                	pop    %r13
     ea2:	41 5c                	pop    %r12
     ea4:	41 5b                	pop    %r11
     ea6:	41 5a                	pop    %r10
     ea8:	41 59                	pop    %r9
     eaa:	41 58                	pop    %r8
     eac:	5d                   	pop    %rbp
     ead:	48 83 c4 08          	add    $0x8,%rsp
     eb1:	5e                   	pop    %rsi
     eb2:	5f                   	pop    %rdi
     eb3:	5a                   	pop    %rdx
     eb4:	59                   	pop    %rcx
     eb5:	5b                   	pop    %rbx
     eb6:	58                   	pop    %rax
     eb7:	48 89 6c 24 38       	mov    %rbp,0x38(%rsp)
     ebc:	48 cf                	iretq  

0000000000000ebe <intr_handler_51>:
     ebe:	55                   	push   %rbp
     ebf:	48 89 e5             	mov    %rsp,%rbp
     ec2:	50                   	push   %rax
     ec3:	53                   	push   %rbx
     ec4:	51                   	push   %rcx
     ec5:	52                   	push   %rdx
     ec6:	57                   	push   %rdi
     ec7:	56                   	push   %rsi
     ec8:	54                   	push   %rsp
     ec9:	55                   	push   %rbp
     eca:	41 50                	push   %r8
     ecc:	41 51                	push   %r9
     ece:	41 52                	push   %r10
     ed0:	41 53                	push   %r11
     ed2:	41 54                	push   %r12
     ed4:	41 55                	push   %r13
     ed6:	41 56                	push   %r14
     ed8:	41 57                	push   %r15
     eda:	9c                   	pushfq 
     edb:	bf 33 00 00 00       	mov    $0x33,%edi
     ee0:	e8 00 00 00 00       	callq  ee5 <intr_handler_51+0x27>
     ee5:	9d                   	popfq  
     ee6:	41 5f                	pop    %r15
     ee8:	41 5e                	pop    %r14
     eea:	41 5d                	pop    %r13
     eec:	41 5c                	pop    %r12
     eee:	41 5b                	pop    %r11
     ef0:	41 5a                	pop    %r10
     ef2:	41 59                	pop    %r9
     ef4:	41 58                	pop    %r8
     ef6:	5d                   	pop    %rbp
     ef7:	48 83 c4 08          	add    $0x8,%rsp
     efb:	5e                   	pop    %rsi
     efc:	5f                   	pop    %rdi
     efd:	5a                   	pop    %rdx
     efe:	59                   	pop    %rcx
     eff:	5b                   	pop    %rbx
     f00:	58                   	pop    %rax
     f01:	48 89 6c 24 38       	mov    %rbp,0x38(%rsp)
     f06:	48 cf                	iretq  

0000000000000f08 <intr_handler_52>:
     f08:	55                   	push   %rbp
     f09:	48 89 e5             	mov    %rsp,%rbp
     f0c:	50                   	push   %rax
     f0d:	53                   	push   %rbx
     f0e:	51                   	push   %rcx
     f0f:	52                   	push   %rdx
     f10:	57                   	push   %rdi
     f11:	56                   	push   %rsi
     f12:	54                   	push   %rsp
     f13:	55                   	push   %rbp
     f14:	41 50                	push   %r8
     f16:	41 51                	push   %r9
     f18:	41 52                	push   %r10
     f1a:	41 53                	push   %r11
     f1c:	41 54                	push   %r12
     f1e:	41 55                	push   %r13
     f20:	41 56                	push   %r14
     f22:	41 57                	push   %r15
     f24:	9c                   	pushfq 
     f25:	bf 34 00 00 00       	mov    $0x34,%edi
     f2a:	e8 00 00 00 00       	callq  f2f <intr_handler_52+0x27>
     f2f:	9d                   	popfq  
     f30:	41 5f                	pop    %r15
     f32:	41 5e                	pop    %r14
     f34:	41 5d                	pop    %r13
     f36:	41 5c                	pop    %r12
     f38:	41 5b                	pop    %r11
     f3a:	41 5a                	pop    %r10
     f3c:	41 59                	pop    %r9
     f3e:	41 58                	pop    %r8
     f40:	5d                   	pop    %rbp
     f41:	48 83 c4 08          	add    $0x8,%rsp
     f45:	5e                   	pop    %rsi
     f46:	5f                   	pop    %rdi
     f47:	5a                   	pop    %rdx
     f48:	59                   	pop    %rcx
     f49:	5b                   	pop    %rbx
     f4a:	58                   	pop    %rax
     f4b:	48 89 6c 24 38       	mov    %rbp,0x38(%rsp)
     f50:	48 cf                	iretq  

0000000000000f52 <intr_handler_53>:
     f52:	55                   	push   %rbp
     f53:	48 89 e5             	mov    %rsp,%rbp
     f56:	50                   	push   %rax
     f57:	53                   	push   %rbx
     f58:	51                   	push   %rcx
     f59:	52                   	push   %rdx
     f5a:	57                   	push   %rdi
     f5b:	56                   	push   %rsi
     f5c:	54                   	push   %rsp
     f5d:	55                   	push   %rbp
     f5e:	41 50                	push   %r8
     f60:	41 51                	push   %r9
     f62:	41 52                	push   %r10
     f64:	41 53                	push   %r11
     f66:	41 54                	push   %r12
     f68:	41 55                	push   %r13
     f6a:	41 56                	push   %r14
     f6c:	41 57                	push   %r15
     f6e:	9c                   	pushfq 
     f6f:	bf 35 00 00 00       	mov    $0x35,%edi
     f74:	e8 00 00 00 00       	callq  f79 <intr_handler_53+0x27>
     f79:	9d                   	popfq  
     f7a:	41 5f                	pop    %r15
     f7c:	41 5e                	pop    %r14
     f7e:	41 5d                	pop    %r13
     f80:	41 5c                	pop    %r12
     f82:	41 5b                	pop    %r11
     f84:	41 5a                	pop    %r10
     f86:	41 59                	pop    %r9
     f88:	41 58                	pop    %r8
     f8a:	5d                   	pop    %rbp
     f8b:	48 83 c4 08          	add    $0x8,%rsp
     f8f:	5e                   	pop    %rsi
     f90:	5f                   	pop    %rdi
     f91:	5a                   	pop    %rdx
     f92:	59                   	pop    %rcx
     f93:	5b                   	pop    %rbx
     f94:	58                   	pop    %rax
     f95:	48 89 6c 24 38       	mov    %rbp,0x38(%rsp)
     f9a:	48 cf                	iretq  

0000000000000f9c <intr_handler_54>:
     f9c:	55                   	push   %rbp
     f9d:	48 89 e5             	mov    %rsp,%rbp
     fa0:	50                   	push   %rax
     fa1:	53                   	push   %rbx
     fa2:	51                   	push   %rcx
     fa3:	52                   	push   %rdx
     fa4:	57                   	push   %rdi
     fa5:	56                   	push   %rsi
     fa6:	54                   	push   %rsp
     fa7:	55                   	push   %rbp
     fa8:	41 50                	push   %r8
     faa:	41 51                	push   %r9
     fac:	41 52                	push   %r10
     fae:	41 53                	push   %r11
     fb0:	41 54                	push   %r12
     fb2:	41 55                	push   %r13
     fb4:	41 56                	push   %r14
     fb6:	41 57                	push   %r15
     fb8:	9c                   	pushfq 
     fb9:	bf 36 00 00 00       	mov    $0x36,%edi
     fbe:	e8 00 00 00 00       	callq  fc3 <intr_handler_54+0x27>
     fc3:	9d                   	popfq  
     fc4:	41 5f                	pop    %r15
     fc6:	41 5e                	pop    %r14
     fc8:	41 5d                	pop    %r13
     fca:	41 5c                	pop    %r12
     fcc:	41 5b                	pop    %r11
     fce:	41 5a                	pop    %r10
     fd0:	41 59                	pop    %r9
     fd2:	41 58                	pop    %r8
     fd4:	5d                   	pop    %rbp
     fd5:	48 83 c4 08          	add    $0x8,%rsp
     fd9:	5e                   	pop    %rsi
     fda:	5f                   	pop    %rdi
     fdb:	5a                   	pop    %rdx
     fdc:	59                   	pop    %rcx
     fdd:	5b                   	pop    %rbx
     fde:	58                   	pop    %rax
     fdf:	48 89 6c 24 38       	mov    %rbp,0x38(%rsp)
     fe4:	48 cf                	iretq  

0000000000000fe6 <intr_handler_55>:
     fe6:	55                   	push   %rbp
     fe7:	48 89 e5             	mov    %rsp,%rbp
     fea:	50                   	push   %rax
     feb:	53                   	push   %rbx
     fec:	51                   	push   %rcx
     fed:	52                   	push   %rdx
     fee:	57                   	push   %rdi
     fef:	56                   	push   %rsi
     ff0:	54                   	push   %rsp
     ff1:	55                   	push   %rbp
     ff2:	41 50                	push   %r8
     ff4:	41 51                	push   %r9
     ff6:	41 52                	push   %r10
     ff8:	41 53                	push   %r11
     ffa:	41 54                	push   %r12
     ffc:	41 55                	push   %r13
     ffe:	41 56                	push   %r14
    1000:	41 57                	push   %r15
    1002:	9c                   	pushfq 
    1003:	bf 37 00 00 00       	mov    $0x37,%edi
    1008:	e8 00 00 00 00       	callq  100d <intr_handler_55+0x27>
    100d:	9d                   	popfq  
    100e:	41 5f                	pop    %r15
    1010:	41 5e                	pop    %r14
    1012:	41 5d                	pop    %r13
    1014:	41 5c                	pop    %r12
    1016:	41 5b                	pop    %r11
    1018:	41 5a                	pop    %r10
    101a:	41 59                	pop    %r9
    101c:	41 58                	pop    %r8
    101e:	5d                   	pop    %rbp
    101f:	48 83 c4 08          	add    $0x8,%rsp
    1023:	5e                   	pop    %rsi
    1024:	5f                   	pop    %rdi
    1025:	5a                   	pop    %rdx
    1026:	59                   	pop    %rcx
    1027:	5b                   	pop    %rbx
    1028:	58                   	pop    %rax
    1029:	48 89 6c 24 38       	mov    %rbp,0x38(%rsp)
    102e:	48 cf                	iretq  

0000000000001030 <intr_handler_56>:
    1030:	55                   	push   %rbp
    1031:	48 89 e5             	mov    %rsp,%rbp
    1034:	50                   	push   %rax
    1035:	53                   	push   %rbx
    1036:	51                   	push   %rcx
    1037:	52                   	push   %rdx
    1038:	57                   	push   %rdi
    1039:	56                   	push   %rsi
    103a:	54                   	push   %rsp
    103b:	55                   	push   %rbp
    103c:	41 50                	push   %r8
    103e:	41 51                	push   %r9
    1040:	41 52                	push   %r10
    1042:	41 53                	push   %r11
    1044:	41 54                	push   %r12
    1046:	41 55                	push   %r13
    1048:	41 56                	push   %r14
    104a:	41 57                	push   %r15
    104c:	9c                   	pushfq 
    104d:	bf 38 00 00 00       	mov    $0x38,%edi
    1052:	e8 00 00 00 00       	callq  1057 <intr_handler_56+0x27>
    1057:	9d                   	popfq  
    1058:	41 5f                	pop    %r15
    105a:	41 5e                	pop    %r14
    105c:	41 5d                	pop    %r13
    105e:	41 5c                	pop    %r12
    1060:	41 5b                	pop    %r11
    1062:	41 5a                	pop    %r10
    1064:	41 59                	pop    %r9
    1066:	41 58                	pop    %r8
    1068:	5d                   	pop    %rbp
    1069:	48 83 c4 08          	add    $0x8,%rsp
    106d:	5e                   	pop    %rsi
    106e:	5f                   	pop    %rdi
    106f:	5a                   	pop    %rdx
    1070:	59                   	pop    %rcx
    1071:	5b                   	pop    %rbx
    1072:	58                   	pop    %rax
    1073:	48 89 6c 24 38       	mov    %rbp,0x38(%rsp)
    1078:	48 cf                	iretq  

000000000000107a <intr_handler_57>:
    107a:	55                   	push   %rbp
    107b:	48 89 e5             	mov    %rsp,%rbp
    107e:	50                   	push   %rax
    107f:	53                   	push   %rbx
    1080:	51                   	push   %rcx
    1081:	52                   	push   %rdx
    1082:	57                   	push   %rdi
    1083:	56                   	push   %rsi
    1084:	54                   	push   %rsp
    1085:	55                   	push   %rbp
    1086:	41 50                	push   %r8
    1088:	41 51                	push   %r9
    108a:	41 52                	push   %r10
    108c:	41 53                	push   %r11
    108e:	41 54                	push   %r12
    1090:	41 55                	push   %r13
    1092:	41 56                	push   %r14
    1094:	41 57                	push   %r15
    1096:	9c                   	pushfq 
    1097:	bf 39 00 00 00       	mov    $0x39,%edi
    109c:	e8 00 00 00 00       	callq  10a1 <intr_handler_57+0x27>
    10a1:	9d                   	popfq  
    10a2:	41 5f                	pop    %r15
    10a4:	41 5e                	pop    %r14
    10a6:	41 5d                	pop    %r13
    10a8:	41 5c                	pop    %r12
    10aa:	41 5b                	pop    %r11
    10ac:	41 5a                	pop    %r10
    10ae:	41 59                	pop    %r9
    10b0:	41 58                	pop    %r8
    10b2:	5d                   	pop    %rbp
    10b3:	48 83 c4 08          	add    $0x8,%rsp
    10b7:	5e                   	pop    %rsi
    10b8:	5f                   	pop    %rdi
    10b9:	5a                   	pop    %rdx
    10ba:	59                   	pop    %rcx
    10bb:	5b                   	pop    %rbx
    10bc:	58                   	pop    %rax
    10bd:	48 89 6c 24 38       	mov    %rbp,0x38(%rsp)
    10c2:	48 cf                	iretq  

00000000000010c4 <intr_handler_58>:
    10c4:	55                   	push   %rbp
    10c5:	48 89 e5             	mov    %rsp,%rbp
    10c8:	50                   	push   %rax
    10c9:	53                   	push   %rbx
    10ca:	51                   	push   %rcx
    10cb:	52                   	push   %rdx
    10cc:	57                   	push   %rdi
    10cd:	56                   	push   %rsi
    10ce:	54                   	push   %rsp
    10cf:	55                   	push   %rbp
    10d0:	41 50                	push   %r8
    10d2:	41 51                	push   %r9
    10d4:	41 52                	push   %r10
    10d6:	41 53                	push   %r11
    10d8:	41 54                	push   %r12
    10da:	41 55                	push   %r13
    10dc:	41 56                	push   %r14
    10de:	41 57                	push   %r15
    10e0:	9c                   	pushfq 
    10e1:	bf 3a 00 00 00       	mov    $0x3a,%edi
    10e6:	e8 00 00 00 00       	callq  10eb <intr_handler_58+0x27>
    10eb:	9d                   	popfq  
    10ec:	41 5f                	pop    %r15
    10ee:	41 5e                	pop    %r14
    10f0:	41 5d                	pop    %r13
    10f2:	41 5c                	pop    %r12
    10f4:	41 5b                	pop    %r11
    10f6:	41 5a                	pop    %r10
    10f8:	41 59                	pop    %r9
    10fa:	41 58                	pop    %r8
    10fc:	5d                   	pop    %rbp
    10fd:	48 83 c4 08          	add    $0x8,%rsp
    1101:	5e                   	pop    %rsi
    1102:	5f                   	pop    %rdi
    1103:	5a                   	pop    %rdx
    1104:	59                   	pop    %rcx
    1105:	5b                   	pop    %rbx
    1106:	58                   	pop    %rax
    1107:	48 89 6c 24 38       	mov    %rbp,0x38(%rsp)
    110c:	48 cf                	iretq  

000000000000110e <intr_handler_59>:
    110e:	55                   	push   %rbp
    110f:	48 89 e5             	mov    %rsp,%rbp
    1112:	50                   	push   %rax
    1113:	53                   	push   %rbx
    1114:	51                   	push   %rcx
    1115:	52                   	push   %rdx
    1116:	57                   	push   %rdi
    1117:	56                   	push   %rsi
    1118:	54                   	push   %rsp
    1119:	55                   	push   %rbp
    111a:	41 50                	push   %r8
    111c:	41 51                	push   %r9
    111e:	41 52                	push   %r10
    1120:	41 53                	push   %r11
    1122:	41 54                	push   %r12
    1124:	41 55                	push   %r13
    1126:	41 56                	push   %r14
    1128:	41 57                	push   %r15
    112a:	9c                   	pushfq 
    112b:	bf 3b 00 00 00       	mov    $0x3b,%edi
    1130:	e8 00 00 00 00       	callq  1135 <intr_handler_59+0x27>
    1135:	9d                   	popfq  
    1136:	41 5f                	pop    %r15
    1138:	41 5e                	pop    %r14
    113a:	41 5d                	pop    %r13
    113c:	41 5c                	pop    %r12
    113e:	41 5b                	pop    %r11
    1140:	41 5a                	pop    %r10
    1142:	41 59                	pop    %r9
    1144:	41 58                	pop    %r8
    1146:	5d                   	pop    %rbp
    1147:	48 83 c4 08          	add    $0x8,%rsp
    114b:	5e                   	pop    %rsi
    114c:	5f                   	pop    %rdi
    114d:	5a                   	pop    %rdx
    114e:	59                   	pop    %rcx
    114f:	5b                   	pop    %rbx
    1150:	58                   	pop    %rax
    1151:	48 89 6c 24 38       	mov    %rbp,0x38(%rsp)
    1156:	48 cf                	iretq  

0000000000001158 <intr_handler_60>:
    1158:	55                   	push   %rbp
    1159:	48 89 e5             	mov    %rsp,%rbp
    115c:	50                   	push   %rax
    115d:	53                   	push   %rbx
    115e:	51                   	push   %rcx
    115f:	52                   	push   %rdx
    1160:	57                   	push   %rdi
    1161:	56                   	push   %rsi
    1162:	54                   	push   %rsp
    1163:	55                   	push   %rbp
    1164:	41 50                	push   %r8
    1166:	41 51                	push   %r9
    1168:	41 52                	push   %r10
    116a:	41 53                	push   %r11
    116c:	41 54                	push   %r12
    116e:	41 55                	push   %r13
    1170:	41 56                	push   %r14
    1172:	41 57                	push   %r15
    1174:	9c                   	pushfq 
    1175:	bf 3c 00 00 00       	mov    $0x3c,%edi
    117a:	e8 00 00 00 00       	callq  117f <intr_handler_60+0x27>
    117f:	9d                   	popfq  
    1180:	41 5f                	pop    %r15
    1182:	41 5e                	pop    %r14
    1184:	41 5d                	pop    %r13
    1186:	41 5c                	pop    %r12
    1188:	41 5b                	pop    %r11
    118a:	41 5a                	pop    %r10
    118c:	41 59                	pop    %r9
    118e:	41 58                	pop    %r8
    1190:	5d                   	pop    %rbp
    1191:	48 83 c4 08          	add    $0x8,%rsp
    1195:	5e                   	pop    %rsi
    1196:	5f                   	pop    %rdi
    1197:	5a                   	pop    %rdx
    1198:	59                   	pop    %rcx
    1199:	5b                   	pop    %rbx
    119a:	58                   	pop    %rax
    119b:	48 89 6c 24 38       	mov    %rbp,0x38(%rsp)
    11a0:	48 cf                	iretq  

00000000000011a2 <intr_handler_61>:
    11a2:	55                   	push   %rbp
    11a3:	48 89 e5             	mov    %rsp,%rbp
    11a6:	50                   	push   %rax
    11a7:	53                   	push   %rbx
    11a8:	51                   	push   %rcx
    11a9:	52                   	push   %rdx
    11aa:	57                   	push   %rdi
    11ab:	56                   	push   %rsi
    11ac:	54                   	push   %rsp
    11ad:	55                   	push   %rbp
    11ae:	41 50                	push   %r8
    11b0:	41 51                	push   %r9
    11b2:	41 52                	push   %r10
    11b4:	41 53                	push   %r11
    11b6:	41 54                	push   %r12
    11b8:	41 55                	push   %r13
    11ba:	41 56                	push   %r14
    11bc:	41 57                	push   %r15
    11be:	9c                   	pushfq 
    11bf:	bf 3d 00 00 00       	mov    $0x3d,%edi
    11c4:	e8 00 00 00 00       	callq  11c9 <intr_handler_61+0x27>
    11c9:	9d                   	popfq  
    11ca:	41 5f                	pop    %r15
    11cc:	41 5e                	pop    %r14
    11ce:	41 5d                	pop    %r13
    11d0:	41 5c                	pop    %r12
    11d2:	41 5b                	pop    %r11
    11d4:	41 5a                	pop    %r10
    11d6:	41 59                	pop    %r9
    11d8:	41 58                	pop    %r8
    11da:	5d                   	pop    %rbp
    11db:	48 83 c4 08          	add    $0x8,%rsp
    11df:	5e                   	pop    %rsi
    11e0:	5f                   	pop    %rdi
    11e1:	5a                   	pop    %rdx
    11e2:	59                   	pop    %rcx
    11e3:	5b                   	pop    %rbx
    11e4:	58                   	pop    %rax
    11e5:	48 89 6c 24 38       	mov    %rbp,0x38(%rsp)
    11ea:	48 cf                	iretq  

00000000000011ec <intr_handler_62>:
    11ec:	55                   	push   %rbp
    11ed:	48 89 e5             	mov    %rsp,%rbp
    11f0:	50                   	push   %rax
    11f1:	53                   	push   %rbx
    11f2:	51                   	push   %rcx
    11f3:	52                   	push   %rdx
    11f4:	57                   	push   %rdi
    11f5:	56                   	push   %rsi
    11f6:	54                   	push   %rsp
    11f7:	55                   	push   %rbp
    11f8:	41 50                	push   %r8
    11fa:	41 51                	push   %r9
    11fc:	41 52                	push   %r10
    11fe:	41 53                	push   %r11
    1200:	41 54                	push   %r12
    1202:	41 55                	push   %r13
    1204:	41 56                	push   %r14
    1206:	41 57                	push   %r15
    1208:	9c                   	pushfq 
    1209:	bf 3e 00 00 00       	mov    $0x3e,%edi
    120e:	e8 00 00 00 00       	callq  1213 <intr_handler_62+0x27>
    1213:	9d                   	popfq  
    1214:	41 5f                	pop    %r15
    1216:	41 5e                	pop    %r14
    1218:	41 5d                	pop    %r13
    121a:	41 5c                	pop    %r12
    121c:	41 5b                	pop    %r11
    121e:	41 5a                	pop    %r10
    1220:	41 59                	pop    %r9
    1222:	41 58                	pop    %r8
    1224:	5d                   	pop    %rbp
    1225:	48 83 c4 08          	add    $0x8,%rsp
    1229:	5e                   	pop    %rsi
    122a:	5f                   	pop    %rdi
    122b:	5a                   	pop    %rdx
    122c:	59                   	pop    %rcx
    122d:	5b                   	pop    %rbx
    122e:	58                   	pop    %rax
    122f:	48 89 6c 24 38       	mov    %rbp,0x38(%rsp)
    1234:	48 cf                	iretq  

0000000000001236 <intr_handler_63>:
    1236:	55                   	push   %rbp
    1237:	48 89 e5             	mov    %rsp,%rbp
    123a:	50                   	push   %rax
    123b:	53                   	push   %rbx
    123c:	51                   	push   %rcx
    123d:	52                   	push   %rdx
    123e:	57                   	push   %rdi
    123f:	56                   	push   %rsi
    1240:	54                   	push   %rsp
    1241:	55                   	push   %rbp
    1242:	41 50                	push   %r8
    1244:	41 51                	push   %r9
    1246:	41 52                	push   %r10
    1248:	41 53                	push   %r11
    124a:	41 54                	push   %r12
    124c:	41 55                	push   %r13
    124e:	41 56                	push   %r14
    1250:	41 57                	push   %r15
    1252:	9c                   	pushfq 
    1253:	bf 3f 00 00 00       	mov    $0x3f,%edi
    1258:	e8 00 00 00 00       	callq  125d <intr_handler_63+0x27>
    125d:	9d                   	popfq  
    125e:	41 5f                	pop    %r15
    1260:	41 5e                	pop    %r14
    1262:	41 5d                	pop    %r13
    1264:	41 5c                	pop    %r12
    1266:	41 5b                	pop    %r11
    1268:	41 5a                	pop    %r10
    126a:	41 59                	pop    %r9
    126c:	41 58                	pop    %r8
    126e:	5d                   	pop    %rbp
    126f:	48 83 c4 08          	add    $0x8,%rsp
    1273:	5e                   	pop    %rsi
    1274:	5f                   	pop    %rdi
    1275:	5a                   	pop    %rdx
    1276:	59                   	pop    %rcx
    1277:	5b                   	pop    %rbx
    1278:	58                   	pop    %rax
    1279:	48 89 6c 24 38       	mov    %rbp,0x38(%rsp)
    127e:	48 cf                	iretq  

0000000000001280 <intr_handler_64>:
    1280:	55                   	push   %rbp
    1281:	48 89 e5             	mov    %rsp,%rbp
    1284:	50                   	push   %rax
    1285:	53                   	push   %rbx
    1286:	51                   	push   %rcx
    1287:	52                   	push   %rdx
    1288:	57                   	push   %rdi
    1289:	56                   	push   %rsi
    128a:	54                   	push   %rsp
    128b:	55                   	push   %rbp
    128c:	41 50                	push   %r8
    128e:	41 51                	push   %r9
    1290:	41 52                	push   %r10
    1292:	41 53                	push   %r11
    1294:	41 54                	push   %r12
    1296:	41 55                	push   %r13
    1298:	41 56                	push   %r14
    129a:	41 57                	push   %r15
    129c:	9c                   	pushfq 
    129d:	bf 40 00 00 00       	mov    $0x40,%edi
    12a2:	e8 00 00 00 00       	callq  12a7 <intr_handler_64+0x27>
    12a7:	9d                   	popfq  
    12a8:	41 5f                	pop    %r15
    12aa:	41 5e                	pop    %r14
    12ac:	41 5d                	pop    %r13
    12ae:	41 5c                	pop    %r12
    12b0:	41 5b                	pop    %r11
    12b2:	41 5a                	pop    %r10
    12b4:	41 59                	pop    %r9
    12b6:	41 58                	pop    %r8
    12b8:	5d                   	pop    %rbp
    12b9:	48 83 c4 08          	add    $0x8,%rsp
    12bd:	5e                   	pop    %rsi
    12be:	5f                   	pop    %rdi
    12bf:	5a                   	pop    %rdx
    12c0:	59                   	pop    %rcx
    12c1:	5b                   	pop    %rbx
    12c2:	58                   	pop    %rax
    12c3:	48 89 6c 24 38       	mov    %rbp,0x38(%rsp)
    12c8:	48 cf                	iretq  

00000000000012ca <intr_handler_65>:
    12ca:	55                   	push   %rbp
    12cb:	48 89 e5             	mov    %rsp,%rbp
    12ce:	50                   	push   %rax
    12cf:	53                   	push   %rbx
    12d0:	51                   	push   %rcx
    12d1:	52                   	push   %rdx
    12d2:	57                   	push   %rdi
    12d3:	56                   	push   %rsi
    12d4:	54                   	push   %rsp
    12d5:	55                   	push   %rbp
    12d6:	41 50                	push   %r8
    12d8:	41 51                	push   %r9
    12da:	41 52                	push   %r10
    12dc:	41 53                	push   %r11
    12de:	41 54                	push   %r12
    12e0:	41 55                	push   %r13
    12e2:	41 56                	push   %r14
    12e4:	41 57                	push   %r15
    12e6:	9c                   	pushfq 
    12e7:	bf 41 00 00 00       	mov    $0x41,%edi
    12ec:	e8 00 00 00 00       	callq  12f1 <intr_handler_65+0x27>
    12f1:	9d                   	popfq  
    12f2:	41 5f                	pop    %r15
    12f4:	41 5e                	pop    %r14
    12f6:	41 5d                	pop    %r13
    12f8:	41 5c                	pop    %r12
    12fa:	41 5b                	pop    %r11
    12fc:	41 5a                	pop    %r10
    12fe:	41 59                	pop    %r9
    1300:	41 58                	pop    %r8
    1302:	5d                   	pop    %rbp
    1303:	48 83 c4 08          	add    $0x8,%rsp
    1307:	5e                   	pop    %rsi
    1308:	5f                   	pop    %rdi
    1309:	5a                   	pop    %rdx
    130a:	59                   	pop    %rcx
    130b:	5b                   	pop    %rbx
    130c:	58                   	pop    %rax
    130d:	48 89 6c 24 38       	mov    %rbp,0x38(%rsp)
    1312:	48 cf                	iretq  

0000000000001314 <intr_handler_66>:
    1314:	55                   	push   %rbp
    1315:	48 89 e5             	mov    %rsp,%rbp
    1318:	50                   	push   %rax
    1319:	53                   	push   %rbx
    131a:	51                   	push   %rcx
    131b:	52                   	push   %rdx
    131c:	57                   	push   %rdi
    131d:	56                   	push   %rsi
    131e:	54                   	push   %rsp
    131f:	55                   	push   %rbp
    1320:	41 50                	push   %r8
    1322:	41 51                	push   %r9
    1324:	41 52                	push   %r10
    1326:	41 53                	push   %r11
    1328:	41 54                	push   %r12
    132a:	41 55                	push   %r13
    132c:	41 56                	push   %r14
    132e:	41 57                	push   %r15
    1330:	9c                   	pushfq 
    1331:	bf 42 00 00 00       	mov    $0x42,%edi
    1336:	e8 00 00 00 00       	callq  133b <intr_handler_66+0x27>
    133b:	9d                   	popfq  
    133c:	41 5f                	pop    %r15
    133e:	41 5e                	pop    %r14
    1340:	41 5d                	pop    %r13
    1342:	41 5c                	pop    %r12
    1344:	41 5b                	pop    %r11
    1346:	41 5a                	pop    %r10
    1348:	41 59                	pop    %r9
    134a:	41 58                	pop    %r8
    134c:	5d                   	pop    %rbp
    134d:	48 83 c4 08          	add    $0x8,%rsp
    1351:	5e                   	pop    %rsi
    1352:	5f                   	pop    %rdi
    1353:	5a                   	pop    %rdx
    1354:	59                   	pop    %rcx
    1355:	5b                   	pop    %rbx
    1356:	58                   	pop    %rax
    1357:	48 89 6c 24 38       	mov    %rbp,0x38(%rsp)
    135c:	48 cf                	iretq  

000000000000135e <intr_handler_67>:
    135e:	55                   	push   %rbp
    135f:	48 89 e5             	mov    %rsp,%rbp
    1362:	50                   	push   %rax
    1363:	53                   	push   %rbx
    1364:	51                   	push   %rcx
    1365:	52                   	push   %rdx
    1366:	57                   	push   %rdi
    1367:	56                   	push   %rsi
    1368:	54                   	push   %rsp
    1369:	55                   	push   %rbp
    136a:	41 50                	push   %r8
    136c:	41 51                	push   %r9
    136e:	41 52                	push   %r10
    1370:	41 53                	push   %r11
    1372:	41 54                	push   %r12
    1374:	41 55                	push   %r13
    1376:	41 56                	push   %r14
    1378:	41 57                	push   %r15
    137a:	9c                   	pushfq 
    137b:	bf 43 00 00 00       	mov    $0x43,%edi
    1380:	e8 00 00 00 00       	callq  1385 <intr_handler_67+0x27>
    1385:	9d                   	popfq  
    1386:	41 5f                	pop    %r15
    1388:	41 5e                	pop    %r14
    138a:	41 5d                	pop    %r13
    138c:	41 5c                	pop    %r12
    138e:	41 5b                	pop    %r11
    1390:	41 5a                	pop    %r10
    1392:	41 59                	pop    %r9
    1394:	41 58                	pop    %r8
    1396:	5d                   	pop    %rbp
    1397:	48 83 c4 08          	add    $0x8,%rsp
    139b:	5e                   	pop    %rsi
    139c:	5f                   	pop    %rdi
    139d:	5a                   	pop    %rdx
    139e:	59                   	pop    %rcx
    139f:	5b                   	pop    %rbx
    13a0:	58                   	pop    %rax
    13a1:	48 89 6c 24 38       	mov    %rbp,0x38(%rsp)
    13a6:	48 cf                	iretq  

00000000000013a8 <intr_handler_68>:
    13a8:	55                   	push   %rbp
    13a9:	48 89 e5             	mov    %rsp,%rbp
    13ac:	50                   	push   %rax
    13ad:	53                   	push   %rbx
    13ae:	51                   	push   %rcx
    13af:	52                   	push   %rdx
    13b0:	57                   	push   %rdi
    13b1:	56                   	push   %rsi
    13b2:	54                   	push   %rsp
    13b3:	55                   	push   %rbp
    13b4:	41 50                	push   %r8
    13b6:	41 51                	push   %r9
    13b8:	41 52                	push   %r10
    13ba:	41 53                	push   %r11
    13bc:	41 54                	push   %r12
    13be:	41 55                	push   %r13
    13c0:	41 56                	push   %r14
    13c2:	41 57                	push   %r15
    13c4:	9c                   	pushfq 
    13c5:	bf 44 00 00 00       	mov    $0x44,%edi
    13ca:	e8 00 00 00 00       	callq  13cf <intr_handler_68+0x27>
    13cf:	9d                   	popfq  
    13d0:	41 5f                	pop    %r15
    13d2:	41 5e                	pop    %r14
    13d4:	41 5d                	pop    %r13
    13d6:	41 5c                	pop    %r12
    13d8:	41 5b                	pop    %r11
    13da:	41 5a                	pop    %r10
    13dc:	41 59                	pop    %r9
    13de:	41 58                	pop    %r8
    13e0:	5d                   	pop    %rbp
    13e1:	48 83 c4 08          	add    $0x8,%rsp
    13e5:	5e                   	pop    %rsi
    13e6:	5f                   	pop    %rdi
    13e7:	5a                   	pop    %rdx
    13e8:	59                   	pop    %rcx
    13e9:	5b                   	pop    %rbx
    13ea:	58                   	pop    %rax
    13eb:	48 89 6c 24 38       	mov    %rbp,0x38(%rsp)
    13f0:	48 cf                	iretq  

00000000000013f2 <intr_handler_69>:
    13f2:	55                   	push   %rbp
    13f3:	48 89 e5             	mov    %rsp,%rbp
    13f6:	50                   	push   %rax
    13f7:	53                   	push   %rbx
    13f8:	51                   	push   %rcx
    13f9:	52                   	push   %rdx
    13fa:	57                   	push   %rdi
    13fb:	56                   	push   %rsi
    13fc:	54                   	push   %rsp
    13fd:	55                   	push   %rbp
    13fe:	41 50                	push   %r8
    1400:	41 51                	push   %r9
    1402:	41 52                	push   %r10
    1404:	41 53                	push   %r11
    1406:	41 54                	push   %r12
    1408:	41 55                	push   %r13
    140a:	41 56                	push   %r14
    140c:	41 57                	push   %r15
    140e:	9c                   	pushfq 
    140f:	bf 45 00 00 00       	mov    $0x45,%edi
    1414:	e8 00 00 00 00       	callq  1419 <intr_handler_69+0x27>
    1419:	9d                   	popfq  
    141a:	41 5f                	pop    %r15
    141c:	41 5e                	pop    %r14
    141e:	41 5d                	pop    %r13
    1420:	41 5c                	pop    %r12
    1422:	41 5b                	pop    %r11
    1424:	41 5a                	pop    %r10
    1426:	41 59                	pop    %r9
    1428:	41 58                	pop    %r8
    142a:	5d                   	pop    %rbp
    142b:	48 83 c4 08          	add    $0x8,%rsp
    142f:	5e                   	pop    %rsi
    1430:	5f                   	pop    %rdi
    1431:	5a                   	pop    %rdx
    1432:	59                   	pop    %rcx
    1433:	5b                   	pop    %rbx
    1434:	58                   	pop    %rax
    1435:	48 89 6c 24 38       	mov    %rbp,0x38(%rsp)
    143a:	48 cf                	iretq  

000000000000143c <intr_handler_70>:
    143c:	55                   	push   %rbp
    143d:	48 89 e5             	mov    %rsp,%rbp
    1440:	50                   	push   %rax
    1441:	53                   	push   %rbx
    1442:	51                   	push   %rcx
    1443:	52                   	push   %rdx
    1444:	57                   	push   %rdi
    1445:	56                   	push   %rsi
    1446:	54                   	push   %rsp
    1447:	55                   	push   %rbp
    1448:	41 50                	push   %r8
    144a:	41 51                	push   %r9
    144c:	41 52                	push   %r10
    144e:	41 53                	push   %r11
    1450:	41 54                	push   %r12
    1452:	41 55                	push   %r13
    1454:	41 56                	push   %r14
    1456:	41 57                	push   %r15
    1458:	9c                   	pushfq 
    1459:	bf 46 00 00 00       	mov    $0x46,%edi
    145e:	e8 00 00 00 00       	callq  1463 <intr_handler_70+0x27>
    1463:	9d                   	popfq  
    1464:	41 5f                	pop    %r15
    1466:	41 5e                	pop    %r14
    1468:	41 5d                	pop    %r13
    146a:	41 5c                	pop    %r12
    146c:	41 5b                	pop    %r11
    146e:	41 5a                	pop    %r10
    1470:	41 59                	pop    %r9
    1472:	41 58                	pop    %r8
    1474:	5d                   	pop    %rbp
    1475:	48 83 c4 08          	add    $0x8,%rsp
    1479:	5e                   	pop    %rsi
    147a:	5f                   	pop    %rdi
    147b:	5a                   	pop    %rdx
    147c:	59                   	pop    %rcx
    147d:	5b                   	pop    %rbx
    147e:	58                   	pop    %rax
    147f:	48 89 6c 24 38       	mov    %rbp,0x38(%rsp)
    1484:	48 cf                	iretq  

0000000000001486 <intr_handler_71>:
    1486:	55                   	push   %rbp
    1487:	48 89 e5             	mov    %rsp,%rbp
    148a:	50                   	push   %rax
    148b:	53                   	push   %rbx
    148c:	51                   	push   %rcx
    148d:	52                   	push   %rdx
    148e:	57                   	push   %rdi
    148f:	56                   	push   %rsi
    1490:	54                   	push   %rsp
    1491:	55                   	push   %rbp
    1492:	41 50                	push   %r8
    1494:	41 51                	push   %r9
    1496:	41 52                	push   %r10
    1498:	41 53                	push   %r11
    149a:	41 54                	push   %r12
    149c:	41 55                	push   %r13
    149e:	41 56                	push   %r14
    14a0:	41 57                	push   %r15
    14a2:	9c                   	pushfq 
    14a3:	bf 47 00 00 00       	mov    $0x47,%edi
    14a8:	e8 00 00 00 00       	callq  14ad <intr_handler_71+0x27>
    14ad:	9d                   	popfq  
    14ae:	41 5f                	pop    %r15
    14b0:	41 5e                	pop    %r14
    14b2:	41 5d                	pop    %r13
    14b4:	41 5c                	pop    %r12
    14b6:	41 5b                	pop    %r11
    14b8:	41 5a                	pop    %r10
    14ba:	41 59                	pop    %r9
    14bc:	41 58                	pop    %r8
    14be:	5d                   	pop    %rbp
    14bf:	48 83 c4 08          	add    $0x8,%rsp
    14c3:	5e                   	pop    %rsi
    14c4:	5f                   	pop    %rdi
    14c5:	5a                   	pop    %rdx
    14c6:	59                   	pop    %rcx
    14c7:	5b                   	pop    %rbx
    14c8:	58                   	pop    %rax
    14c9:	48 89 6c 24 38       	mov    %rbp,0x38(%rsp)
    14ce:	48 cf                	iretq  

00000000000014d0 <intr_handler_72>:
    14d0:	55                   	push   %rbp
    14d1:	48 89 e5             	mov    %rsp,%rbp
    14d4:	50                   	push   %rax
    14d5:	53                   	push   %rbx
    14d6:	51                   	push   %rcx
    14d7:	52                   	push   %rdx
    14d8:	57                   	push   %rdi
    14d9:	56                   	push   %rsi
    14da:	54                   	push   %rsp
    14db:	55                   	push   %rbp
    14dc:	41 50                	push   %r8
    14de:	41 51                	push   %r9
    14e0:	41 52                	push   %r10
    14e2:	41 53                	push   %r11
    14e4:	41 54                	push   %r12
    14e6:	41 55                	push   %r13
    14e8:	41 56                	push   %r14
    14ea:	41 57                	push   %r15
    14ec:	9c                   	pushfq 
    14ed:	bf 48 00 00 00       	mov    $0x48,%edi
    14f2:	e8 00 00 00 00       	callq  14f7 <intr_handler_72+0x27>
    14f7:	9d                   	popfq  
    14f8:	41 5f                	pop    %r15
    14fa:	41 5e                	pop    %r14
    14fc:	41 5d                	pop    %r13
    14fe:	41 5c                	pop    %r12
    1500:	41 5b                	pop    %r11
    1502:	41 5a                	pop    %r10
    1504:	41 59                	pop    %r9
    1506:	41 58                	pop    %r8
    1508:	5d                   	pop    %rbp
    1509:	48 83 c4 08          	add    $0x8,%rsp
    150d:	5e                   	pop    %rsi
    150e:	5f                   	pop    %rdi
    150f:	5a                   	pop    %rdx
    1510:	59                   	pop    %rcx
    1511:	5b                   	pop    %rbx
    1512:	58                   	pop    %rax
    1513:	48 89 6c 24 38       	mov    %rbp,0x38(%rsp)
    1518:	48 cf                	iretq  

000000000000151a <intr_handler_73>:
    151a:	55                   	push   %rbp
    151b:	48 89 e5             	mov    %rsp,%rbp
    151e:	50                   	push   %rax
    151f:	53                   	push   %rbx
    1520:	51                   	push   %rcx
    1521:	52                   	push   %rdx
    1522:	57                   	push   %rdi
    1523:	56                   	push   %rsi
    1524:	54                   	push   %rsp
    1525:	55                   	push   %rbp
    1526:	41 50                	push   %r8
    1528:	41 51                	push   %r9
    152a:	41 52                	push   %r10
    152c:	41 53                	push   %r11
    152e:	41 54                	push   %r12
    1530:	41 55                	push   %r13
    1532:	41 56                	push   %r14
    1534:	41 57                	push   %r15
    1536:	9c                   	pushfq 
    1537:	bf 49 00 00 00       	mov    $0x49,%edi
    153c:	e8 00 00 00 00       	callq  1541 <intr_handler_73+0x27>
    1541:	9d                   	popfq  
    1542:	41 5f                	pop    %r15
    1544:	41 5e                	pop    %r14
    1546:	41 5d                	pop    %r13
    1548:	41 5c                	pop    %r12
    154a:	41 5b                	pop    %r11
    154c:	41 5a                	pop    %r10
    154e:	41 59                	pop    %r9
    1550:	41 58                	pop    %r8
    1552:	5d                   	pop    %rbp
    1553:	48 83 c4 08          	add    $0x8,%rsp
    1557:	5e                   	pop    %rsi
    1558:	5f                   	pop    %rdi
    1559:	5a                   	pop    %rdx
    155a:	59                   	pop    %rcx
    155b:	5b                   	pop    %rbx
    155c:	58                   	pop    %rax
    155d:	48 89 6c 24 38       	mov    %rbp,0x38(%rsp)
    1562:	48 cf                	iretq  

0000000000001564 <intr_handler_74>:
    1564:	55                   	push   %rbp
    1565:	48 89 e5             	mov    %rsp,%rbp
    1568:	50                   	push   %rax
    1569:	53                   	push   %rbx
    156a:	51                   	push   %rcx
    156b:	52                   	push   %rdx
    156c:	57                   	push   %rdi
    156d:	56                   	push   %rsi
    156e:	54                   	push   %rsp
    156f:	55                   	push   %rbp
    1570:	41 50                	push   %r8
    1572:	41 51                	push   %r9
    1574:	41 52                	push   %r10
    1576:	41 53                	push   %r11
    1578:	41 54                	push   %r12
    157a:	41 55                	push   %r13
    157c:	41 56                	push   %r14
    157e:	41 57                	push   %r15
    1580:	9c                   	pushfq 
    1581:	bf 4a 00 00 00       	mov    $0x4a,%edi
    1586:	e8 00 00 00 00       	callq  158b <intr_handler_74+0x27>
    158b:	9d                   	popfq  
    158c:	41 5f                	pop    %r15
    158e:	41 5e                	pop    %r14
    1590:	41 5d                	pop    %r13
    1592:	41 5c                	pop    %r12
    1594:	41 5b                	pop    %r11
    1596:	41 5a                	pop    %r10
    1598:	41 59                	pop    %r9
    159a:	41 58                	pop    %r8
    159c:	5d                   	pop    %rbp
    159d:	48 83 c4 08          	add    $0x8,%rsp
    15a1:	5e                   	pop    %rsi
    15a2:	5f                   	pop    %rdi
    15a3:	5a                   	pop    %rdx
    15a4:	59                   	pop    %rcx
    15a5:	5b                   	pop    %rbx
    15a6:	58                   	pop    %rax
    15a7:	48 89 6c 24 38       	mov    %rbp,0x38(%rsp)
    15ac:	48 cf                	iretq  

00000000000015ae <intr_handler_75>:
    15ae:	55                   	push   %rbp
    15af:	48 89 e5             	mov    %rsp,%rbp
    15b2:	50                   	push   %rax
    15b3:	53                   	push   %rbx
    15b4:	51                   	push   %rcx
    15b5:	52                   	push   %rdx
    15b6:	57                   	push   %rdi
    15b7:	56                   	push   %rsi
    15b8:	54                   	push   %rsp
    15b9:	55                   	push   %rbp
    15ba:	41 50                	push   %r8
    15bc:	41 51                	push   %r9
    15be:	41 52                	push   %r10
    15c0:	41 53                	push   %r11
    15c2:	41 54                	push   %r12
    15c4:	41 55                	push   %r13
    15c6:	41 56                	push   %r14
    15c8:	41 57                	push   %r15
    15ca:	9c                   	pushfq 
    15cb:	bf 4b 00 00 00       	mov    $0x4b,%edi
    15d0:	e8 00 00 00 00       	callq  15d5 <intr_handler_75+0x27>
    15d5:	9d                   	popfq  
    15d6:	41 5f                	pop    %r15
    15d8:	41 5e                	pop    %r14
    15da:	41 5d                	pop    %r13
    15dc:	41 5c                	pop    %r12
    15de:	41 5b                	pop    %r11
    15e0:	41 5a                	pop    %r10
    15e2:	41 59                	pop    %r9
    15e4:	41 58                	pop    %r8
    15e6:	5d                   	pop    %rbp
    15e7:	48 83 c4 08          	add    $0x8,%rsp
    15eb:	5e                   	pop    %rsi
    15ec:	5f                   	pop    %rdi
    15ed:	5a                   	pop    %rdx
    15ee:	59                   	pop    %rcx
    15ef:	5b                   	pop    %rbx
    15f0:	58                   	pop    %rax
    15f1:	48 89 6c 24 38       	mov    %rbp,0x38(%rsp)
    15f6:	48 cf                	iretq  

00000000000015f8 <intr_handler_76>:
    15f8:	55                   	push   %rbp
    15f9:	48 89 e5             	mov    %rsp,%rbp
    15fc:	50                   	push   %rax
    15fd:	53                   	push   %rbx
    15fe:	51                   	push   %rcx
    15ff:	52                   	push   %rdx
    1600:	57                   	push   %rdi
    1601:	56                   	push   %rsi
    1602:	54                   	push   %rsp
    1603:	55                   	push   %rbp
    1604:	41 50                	push   %r8
    1606:	41 51                	push   %r9
    1608:	41 52                	push   %r10
    160a:	41 53                	push   %r11
    160c:	41 54                	push   %r12
    160e:	41 55                	push   %r13
    1610:	41 56                	push   %r14
    1612:	41 57                	push   %r15
    1614:	9c                   	pushfq 
    1615:	bf 4c 00 00 00       	mov    $0x4c,%edi
    161a:	e8 00 00 00 00       	callq  161f <intr_handler_76+0x27>
    161f:	9d                   	popfq  
    1620:	41 5f                	pop    %r15
    1622:	41 5e                	pop    %r14
    1624:	41 5d                	pop    %r13
    1626:	41 5c                	pop    %r12
    1628:	41 5b                	pop    %r11
    162a:	41 5a                	pop    %r10
    162c:	41 59                	pop    %r9
    162e:	41 58                	pop    %r8
    1630:	5d                   	pop    %rbp
    1631:	48 83 c4 08          	add    $0x8,%rsp
    1635:	5e                   	pop    %rsi
    1636:	5f                   	pop    %rdi
    1637:	5a                   	pop    %rdx
    1638:	59                   	pop    %rcx
    1639:	5b                   	pop    %rbx
    163a:	58                   	pop    %rax
    163b:	48 89 6c 24 38       	mov    %rbp,0x38(%rsp)
    1640:	48 cf                	iretq  

0000000000001642 <intr_handler_77>:
    1642:	55                   	push   %rbp
    1643:	48 89 e5             	mov    %rsp,%rbp
    1646:	50                   	push   %rax
    1647:	53                   	push   %rbx
    1648:	51                   	push   %rcx
    1649:	52                   	push   %rdx
    164a:	57                   	push   %rdi
    164b:	56                   	push   %rsi
    164c:	54                   	push   %rsp
    164d:	55                   	push   %rbp
    164e:	41 50                	push   %r8
    1650:	41 51                	push   %r9
    1652:	41 52                	push   %r10
    1654:	41 53                	push   %r11
    1656:	41 54                	push   %r12
    1658:	41 55                	push   %r13
    165a:	41 56                	push   %r14
    165c:	41 57                	push   %r15
    165e:	9c                   	pushfq 
    165f:	bf 4d 00 00 00       	mov    $0x4d,%edi
    1664:	e8 00 00 00 00       	callq  1669 <intr_handler_77+0x27>
    1669:	9d                   	popfq  
    166a:	41 5f                	pop    %r15
    166c:	41 5e                	pop    %r14
    166e:	41 5d                	pop    %r13
    1670:	41 5c                	pop    %r12
    1672:	41 5b                	pop    %r11
    1674:	41 5a                	pop    %r10
    1676:	41 59                	pop    %r9
    1678:	41 58                	pop    %r8
    167a:	5d                   	pop    %rbp
    167b:	48 83 c4 08          	add    $0x8,%rsp
    167f:	5e                   	pop    %rsi
    1680:	5f                   	pop    %rdi
    1681:	5a                   	pop    %rdx
    1682:	59                   	pop    %rcx
    1683:	5b                   	pop    %rbx
    1684:	58                   	pop    %rax
    1685:	48 89 6c 24 38       	mov    %rbp,0x38(%rsp)
    168a:	48 cf                	iretq  

000000000000168c <intr_handler_78>:
    168c:	55                   	push   %rbp
    168d:	48 89 e5             	mov    %rsp,%rbp
    1690:	50                   	push   %rax
    1691:	53                   	push   %rbx
    1692:	51                   	push   %rcx
    1693:	52                   	push   %rdx
    1694:	57                   	push   %rdi
    1695:	56                   	push   %rsi
    1696:	54                   	push   %rsp
    1697:	55                   	push   %rbp
    1698:	41 50                	push   %r8
    169a:	41 51                	push   %r9
    169c:	41 52                	push   %r10
    169e:	41 53                	push   %r11
    16a0:	41 54                	push   %r12
    16a2:	41 55                	push   %r13
    16a4:	41 56                	push   %r14
    16a6:	41 57                	push   %r15
    16a8:	9c                   	pushfq 
    16a9:	bf 4e 00 00 00       	mov    $0x4e,%edi
    16ae:	e8 00 00 00 00       	callq  16b3 <intr_handler_78+0x27>
    16b3:	9d                   	popfq  
    16b4:	41 5f                	pop    %r15
    16b6:	41 5e                	pop    %r14
    16b8:	41 5d                	pop    %r13
    16ba:	41 5c                	pop    %r12
    16bc:	41 5b                	pop    %r11
    16be:	41 5a                	pop    %r10
    16c0:	41 59                	pop    %r9
    16c2:	41 58                	pop    %r8
    16c4:	5d                   	pop    %rbp
    16c5:	48 83 c4 08          	add    $0x8,%rsp
    16c9:	5e                   	pop    %rsi
    16ca:	5f                   	pop    %rdi
    16cb:	5a                   	pop    %rdx
    16cc:	59                   	pop    %rcx
    16cd:	5b                   	pop    %rbx
    16ce:	58                   	pop    %rax
    16cf:	48 89 6c 24 38       	mov    %rbp,0x38(%rsp)
    16d4:	48 cf                	iretq  

00000000000016d6 <intr_handler_79>:
    16d6:	55                   	push   %rbp
    16d7:	48 89 e5             	mov    %rsp,%rbp
    16da:	50                   	push   %rax
    16db:	53                   	push   %rbx
    16dc:	51                   	push   %rcx
    16dd:	52                   	push   %rdx
    16de:	57                   	push   %rdi
    16df:	56                   	push   %rsi
    16e0:	54                   	push   %rsp
    16e1:	55                   	push   %rbp
    16e2:	41 50                	push   %r8
    16e4:	41 51                	push   %r9
    16e6:	41 52                	push   %r10
    16e8:	41 53                	push   %r11
    16ea:	41 54                	push   %r12
    16ec:	41 55                	push   %r13
    16ee:	41 56                	push   %r14
    16f0:	41 57                	push   %r15
    16f2:	9c                   	pushfq 
    16f3:	bf 4f 00 00 00       	mov    $0x4f,%edi
    16f8:	e8 00 00 00 00       	callq  16fd <intr_handler_79+0x27>
    16fd:	9d                   	popfq  
    16fe:	41 5f                	pop    %r15
    1700:	41 5e                	pop    %r14
    1702:	41 5d                	pop    %r13
    1704:	41 5c                	pop    %r12
    1706:	41 5b                	pop    %r11
    1708:	41 5a                	pop    %r10
    170a:	41 59                	pop    %r9
    170c:	41 58                	pop    %r8
    170e:	5d                   	pop    %rbp
    170f:	48 83 c4 08          	add    $0x8,%rsp
    1713:	5e                   	pop    %rsi
    1714:	5f                   	pop    %rdi
    1715:	5a                   	pop    %rdx
    1716:	59                   	pop    %rcx
    1717:	5b                   	pop    %rbx
    1718:	58                   	pop    %rax
    1719:	48 89 6c 24 38       	mov    %rbp,0x38(%rsp)
    171e:	48 cf                	iretq  

0000000000001720 <intr_handler_80>:
    1720:	55                   	push   %rbp
    1721:	48 89 e5             	mov    %rsp,%rbp
    1724:	50                   	push   %rax
    1725:	53                   	push   %rbx
    1726:	51                   	push   %rcx
    1727:	52                   	push   %rdx
    1728:	57                   	push   %rdi
    1729:	56                   	push   %rsi
    172a:	54                   	push   %rsp
    172b:	55                   	push   %rbp
    172c:	41 50                	push   %r8
    172e:	41 51                	push   %r9
    1730:	41 52                	push   %r10
    1732:	41 53                	push   %r11
    1734:	41 54                	push   %r12
    1736:	41 55                	push   %r13
    1738:	41 56                	push   %r14
    173a:	41 57                	push   %r15
    173c:	9c                   	pushfq 
    173d:	bf 50 00 00 00       	mov    $0x50,%edi
    1742:	e8 00 00 00 00       	callq  1747 <intr_handler_80+0x27>
    1747:	9d                   	popfq  
    1748:	41 5f                	pop    %r15
    174a:	41 5e                	pop    %r14
    174c:	41 5d                	pop    %r13
    174e:	41 5c                	pop    %r12
    1750:	41 5b                	pop    %r11
    1752:	41 5a                	pop    %r10
    1754:	41 59                	pop    %r9
    1756:	41 58                	pop    %r8
    1758:	5d                   	pop    %rbp
    1759:	48 83 c4 08          	add    $0x8,%rsp
    175d:	5e                   	pop    %rsi
    175e:	5f                   	pop    %rdi
    175f:	5a                   	pop    %rdx
    1760:	59                   	pop    %rcx
    1761:	5b                   	pop    %rbx
    1762:	58                   	pop    %rax
    1763:	48 89 6c 24 38       	mov    %rbp,0x38(%rsp)
    1768:	48 cf                	iretq  

000000000000176a <intr_handler_81>:
    176a:	55                   	push   %rbp
    176b:	48 89 e5             	mov    %rsp,%rbp
    176e:	50                   	push   %rax
    176f:	53                   	push   %rbx
    1770:	51                   	push   %rcx
    1771:	52                   	push   %rdx
    1772:	57                   	push   %rdi
    1773:	56                   	push   %rsi
    1774:	54                   	push   %rsp
    1775:	55                   	push   %rbp
    1776:	41 50                	push   %r8
    1778:	41 51                	push   %r9
    177a:	41 52                	push   %r10
    177c:	41 53                	push   %r11
    177e:	41 54                	push   %r12
    1780:	41 55                	push   %r13
    1782:	41 56                	push   %r14
    1784:	41 57                	push   %r15
    1786:	9c                   	pushfq 
    1787:	bf 51 00 00 00       	mov    $0x51,%edi
    178c:	e8 00 00 00 00       	callq  1791 <intr_handler_81+0x27>
    1791:	9d                   	popfq  
    1792:	41 5f                	pop    %r15
    1794:	41 5e                	pop    %r14
    1796:	41 5d                	pop    %r13
    1798:	41 5c                	pop    %r12
    179a:	41 5b                	pop    %r11
    179c:	41 5a                	pop    %r10
    179e:	41 59                	pop    %r9
    17a0:	41 58                	pop    %r8
    17a2:	5d                   	pop    %rbp
    17a3:	48 83 c4 08          	add    $0x8,%rsp
    17a7:	5e                   	pop    %rsi
    17a8:	5f                   	pop    %rdi
    17a9:	5a                   	pop    %rdx
    17aa:	59                   	pop    %rcx
    17ab:	5b                   	pop    %rbx
    17ac:	58                   	pop    %rax
    17ad:	48 89 6c 24 38       	mov    %rbp,0x38(%rsp)
    17b2:	48 cf                	iretq  

00000000000017b4 <intr_handler_82>:
    17b4:	55                   	push   %rbp
    17b5:	48 89 e5             	mov    %rsp,%rbp
    17b8:	50                   	push   %rax
    17b9:	53                   	push   %rbx
    17ba:	51                   	push   %rcx
    17bb:	52                   	push   %rdx
    17bc:	57                   	push   %rdi
    17bd:	56                   	push   %rsi
    17be:	54                   	push   %rsp
    17bf:	55                   	push   %rbp
    17c0:	41 50                	push   %r8
    17c2:	41 51                	push   %r9
    17c4:	41 52                	push   %r10
    17c6:	41 53                	push   %r11
    17c8:	41 54                	push   %r12
    17ca:	41 55                	push   %r13
    17cc:	41 56                	push   %r14
    17ce:	41 57                	push   %r15
    17d0:	9c                   	pushfq 
    17d1:	bf 52 00 00 00       	mov    $0x52,%edi
    17d6:	e8 00 00 00 00       	callq  17db <intr_handler_82+0x27>
    17db:	9d                   	popfq  
    17dc:	41 5f                	pop    %r15
    17de:	41 5e                	pop    %r14
    17e0:	41 5d                	pop    %r13
    17e2:	41 5c                	pop    %r12
    17e4:	41 5b                	pop    %r11
    17e6:	41 5a                	pop    %r10
    17e8:	41 59                	pop    %r9
    17ea:	41 58                	pop    %r8
    17ec:	5d                   	pop    %rbp
    17ed:	48 83 c4 08          	add    $0x8,%rsp
    17f1:	5e                   	pop    %rsi
    17f2:	5f                   	pop    %rdi
    17f3:	5a                   	pop    %rdx
    17f4:	59                   	pop    %rcx
    17f5:	5b                   	pop    %rbx
    17f6:	58                   	pop    %rax
    17f7:	48 89 6c 24 38       	mov    %rbp,0x38(%rsp)
    17fc:	48 cf                	iretq  

00000000000017fe <intr_handler_83>:
    17fe:	55                   	push   %rbp
    17ff:	48 89 e5             	mov    %rsp,%rbp
    1802:	50                   	push   %rax
    1803:	53                   	push   %rbx
    1804:	51                   	push   %rcx
    1805:	52                   	push   %rdx
    1806:	57                   	push   %rdi
    1807:	56                   	push   %rsi
    1808:	54                   	push   %rsp
    1809:	55                   	push   %rbp
    180a:	41 50                	push   %r8
    180c:	41 51                	push   %r9
    180e:	41 52                	push   %r10
    1810:	41 53                	push   %r11
    1812:	41 54                	push   %r12
    1814:	41 55                	push   %r13
    1816:	41 56                	push   %r14
    1818:	41 57                	push   %r15
    181a:	9c                   	pushfq 
    181b:	bf 53 00 00 00       	mov    $0x53,%edi
    1820:	e8 00 00 00 00       	callq  1825 <intr_handler_83+0x27>
    1825:	9d                   	popfq  
    1826:	41 5f                	pop    %r15
    1828:	41 5e                	pop    %r14
    182a:	41 5d                	pop    %r13
    182c:	41 5c                	pop    %r12
    182e:	41 5b                	pop    %r11
    1830:	41 5a                	pop    %r10
    1832:	41 59                	pop    %r9
    1834:	41 58                	pop    %r8
    1836:	5d                   	pop    %rbp
    1837:	48 83 c4 08          	add    $0x8,%rsp
    183b:	5e                   	pop    %rsi
    183c:	5f                   	pop    %rdi
    183d:	5a                   	pop    %rdx
    183e:	59                   	pop    %rcx
    183f:	5b                   	pop    %rbx
    1840:	58                   	pop    %rax
    1841:	48 89 6c 24 38       	mov    %rbp,0x38(%rsp)
    1846:	48 cf                	iretq  

0000000000001848 <intr_handler_84>:
    1848:	55                   	push   %rbp
    1849:	48 89 e5             	mov    %rsp,%rbp
    184c:	50                   	push   %rax
    184d:	53                   	push   %rbx
    184e:	51                   	push   %rcx
    184f:	52                   	push   %rdx
    1850:	57                   	push   %rdi
    1851:	56                   	push   %rsi
    1852:	54                   	push   %rsp
    1853:	55                   	push   %rbp
    1854:	41 50                	push   %r8
    1856:	41 51                	push   %r9
    1858:	41 52                	push   %r10
    185a:	41 53                	push   %r11
    185c:	41 54                	push   %r12
    185e:	41 55                	push   %r13
    1860:	41 56                	push   %r14
    1862:	41 57                	push   %r15
    1864:	9c                   	pushfq 
    1865:	bf 54 00 00 00       	mov    $0x54,%edi
    186a:	e8 00 00 00 00       	callq  186f <intr_handler_84+0x27>
    186f:	9d                   	popfq  
    1870:	41 5f                	pop    %r15
    1872:	41 5e                	pop    %r14
    1874:	41 5d                	pop    %r13
    1876:	41 5c                	pop    %r12
    1878:	41 5b                	pop    %r11
    187a:	41 5a                	pop    %r10
    187c:	41 59                	pop    %r9
    187e:	41 58                	pop    %r8
    1880:	5d                   	pop    %rbp
    1881:	48 83 c4 08          	add    $0x8,%rsp
    1885:	5e                   	pop    %rsi
    1886:	5f                   	pop    %rdi
    1887:	5a                   	pop    %rdx
    1888:	59                   	pop    %rcx
    1889:	5b                   	pop    %rbx
    188a:	58                   	pop    %rax
    188b:	48 89 6c 24 38       	mov    %rbp,0x38(%rsp)
    1890:	48 cf                	iretq  

0000000000001892 <intr_handler_85>:
    1892:	55                   	push   %rbp
    1893:	48 89 e5             	mov    %rsp,%rbp
    1896:	50                   	push   %rax
    1897:	53                   	push   %rbx
    1898:	51                   	push   %rcx
    1899:	52                   	push   %rdx
    189a:	57                   	push   %rdi
    189b:	56                   	push   %rsi
    189c:	54                   	push   %rsp
    189d:	55                   	push   %rbp
    189e:	41 50                	push   %r8
    18a0:	41 51                	push   %r9
    18a2:	41 52                	push   %r10
    18a4:	41 53                	push   %r11
    18a6:	41 54                	push   %r12
    18a8:	41 55                	push   %r13
    18aa:	41 56                	push   %r14
    18ac:	41 57                	push   %r15
    18ae:	9c                   	pushfq 
    18af:	bf 55 00 00 00       	mov    $0x55,%edi
    18b4:	e8 00 00 00 00       	callq  18b9 <intr_handler_85+0x27>
    18b9:	9d                   	popfq  
    18ba:	41 5f                	pop    %r15
    18bc:	41 5e                	pop    %r14
    18be:	41 5d                	pop    %r13
    18c0:	41 5c                	pop    %r12
    18c2:	41 5b                	pop    %r11
    18c4:	41 5a                	pop    %r10
    18c6:	41 59                	pop    %r9
    18c8:	41 58                	pop    %r8
    18ca:	5d                   	pop    %rbp
    18cb:	48 83 c4 08          	add    $0x8,%rsp
    18cf:	5e                   	pop    %rsi
    18d0:	5f                   	pop    %rdi
    18d1:	5a                   	pop    %rdx
    18d2:	59                   	pop    %rcx
    18d3:	5b                   	pop    %rbx
    18d4:	58                   	pop    %rax
    18d5:	48 89 6c 24 38       	mov    %rbp,0x38(%rsp)
    18da:	48 cf                	iretq  

00000000000018dc <intr_handler_86>:
    18dc:	55                   	push   %rbp
    18dd:	48 89 e5             	mov    %rsp,%rbp
    18e0:	50                   	push   %rax
    18e1:	53                   	push   %rbx
    18e2:	51                   	push   %rcx
    18e3:	52                   	push   %rdx
    18e4:	57                   	push   %rdi
    18e5:	56                   	push   %rsi
    18e6:	54                   	push   %rsp
    18e7:	55                   	push   %rbp
    18e8:	41 50                	push   %r8
    18ea:	41 51                	push   %r9
    18ec:	41 52                	push   %r10
    18ee:	41 53                	push   %r11
    18f0:	41 54                	push   %r12
    18f2:	41 55                	push   %r13
    18f4:	41 56                	push   %r14
    18f6:	41 57                	push   %r15
    18f8:	9c                   	pushfq 
    18f9:	bf 56 00 00 00       	mov    $0x56,%edi
    18fe:	e8 00 00 00 00       	callq  1903 <intr_handler_86+0x27>
    1903:	9d                   	popfq  
    1904:	41 5f                	pop    %r15
    1906:	41 5e                	pop    %r14
    1908:	41 5d                	pop    %r13
    190a:	41 5c                	pop    %r12
    190c:	41 5b                	pop    %r11
    190e:	41 5a                	pop    %r10
    1910:	41 59                	pop    %r9
    1912:	41 58                	pop    %r8
    1914:	5d                   	pop    %rbp
    1915:	48 83 c4 08          	add    $0x8,%rsp
    1919:	5e                   	pop    %rsi
    191a:	5f                   	pop    %rdi
    191b:	5a                   	pop    %rdx
    191c:	59                   	pop    %rcx
    191d:	5b                   	pop    %rbx
    191e:	58                   	pop    %rax
    191f:	48 89 6c 24 38       	mov    %rbp,0x38(%rsp)
    1924:	48 cf                	iretq  

0000000000001926 <intr_handler_87>:
    1926:	55                   	push   %rbp
    1927:	48 89 e5             	mov    %rsp,%rbp
    192a:	50                   	push   %rax
    192b:	53                   	push   %rbx
    192c:	51                   	push   %rcx
    192d:	52                   	push   %rdx
    192e:	57                   	push   %rdi
    192f:	56                   	push   %rsi
    1930:	54                   	push   %rsp
    1931:	55                   	push   %rbp
    1932:	41 50                	push   %r8
    1934:	41 51                	push   %r9
    1936:	41 52                	push   %r10
    1938:	41 53                	push   %r11
    193a:	41 54                	push   %r12
    193c:	41 55                	push   %r13
    193e:	41 56                	push   %r14
    1940:	41 57                	push   %r15
    1942:	9c                   	pushfq 
    1943:	bf 57 00 00 00       	mov    $0x57,%edi
    1948:	e8 00 00 00 00       	callq  194d <intr_handler_87+0x27>
    194d:	9d                   	popfq  
    194e:	41 5f                	pop    %r15
    1950:	41 5e                	pop    %r14
    1952:	41 5d                	pop    %r13
    1954:	41 5c                	pop    %r12
    1956:	41 5b                	pop    %r11
    1958:	41 5a                	pop    %r10
    195a:	41 59                	pop    %r9
    195c:	41 58                	pop    %r8
    195e:	5d                   	pop    %rbp
    195f:	48 83 c4 08          	add    $0x8,%rsp
    1963:	5e                   	pop    %rsi
    1964:	5f                   	pop    %rdi
    1965:	5a                   	pop    %rdx
    1966:	59                   	pop    %rcx
    1967:	5b                   	pop    %rbx
    1968:	58                   	pop    %rax
    1969:	48 89 6c 24 38       	mov    %rbp,0x38(%rsp)
    196e:	48 cf                	iretq  

0000000000001970 <intr_handler_88>:
    1970:	55                   	push   %rbp
    1971:	48 89 e5             	mov    %rsp,%rbp
    1974:	50                   	push   %rax
    1975:	53                   	push   %rbx
    1976:	51                   	push   %rcx
    1977:	52                   	push   %rdx
    1978:	57                   	push   %rdi
    1979:	56                   	push   %rsi
    197a:	54                   	push   %rsp
    197b:	55                   	push   %rbp
    197c:	41 50                	push   %r8
    197e:	41 51                	push   %r9
    1980:	41 52                	push   %r10
    1982:	41 53                	push   %r11
    1984:	41 54                	push   %r12
    1986:	41 55                	push   %r13
    1988:	41 56                	push   %r14
    198a:	41 57                	push   %r15
    198c:	9c                   	pushfq 
    198d:	bf 58 00 00 00       	mov    $0x58,%edi
    1992:	e8 00 00 00 00       	callq  1997 <intr_handler_88+0x27>
    1997:	9d                   	popfq  
    1998:	41 5f                	pop    %r15
    199a:	41 5e                	pop    %r14
    199c:	41 5d                	pop    %r13
    199e:	41 5c                	pop    %r12
    19a0:	41 5b                	pop    %r11
    19a2:	41 5a                	pop    %r10
    19a4:	41 59                	pop    %r9
    19a6:	41 58                	pop    %r8
    19a8:	5d                   	pop    %rbp
    19a9:	48 83 c4 08          	add    $0x8,%rsp
    19ad:	5e                   	pop    %rsi
    19ae:	5f                   	pop    %rdi
    19af:	5a                   	pop    %rdx
    19b0:	59                   	pop    %rcx
    19b1:	5b                   	pop    %rbx
    19b2:	58                   	pop    %rax
    19b3:	48 89 6c 24 38       	mov    %rbp,0x38(%rsp)
    19b8:	48 cf                	iretq  

00000000000019ba <intr_handler_89>:
    19ba:	55                   	push   %rbp
    19bb:	48 89 e5             	mov    %rsp,%rbp
    19be:	50                   	push   %rax
    19bf:	53                   	push   %rbx
    19c0:	51                   	push   %rcx
    19c1:	52                   	push   %rdx
    19c2:	57                   	push   %rdi
    19c3:	56                   	push   %rsi
    19c4:	54                   	push   %rsp
    19c5:	55                   	push   %rbp
    19c6:	41 50                	push   %r8
    19c8:	41 51                	push   %r9
    19ca:	41 52                	push   %r10
    19cc:	41 53                	push   %r11
    19ce:	41 54                	push   %r12
    19d0:	41 55                	push   %r13
    19d2:	41 56                	push   %r14
    19d4:	41 57                	push   %r15
    19d6:	9c                   	pushfq 
    19d7:	bf 59 00 00 00       	mov    $0x59,%edi
    19dc:	e8 00 00 00 00       	callq  19e1 <intr_handler_89+0x27>
    19e1:	9d                   	popfq  
    19e2:	41 5f                	pop    %r15
    19e4:	41 5e                	pop    %r14
    19e6:	41 5d                	pop    %r13
    19e8:	41 5c                	pop    %r12
    19ea:	41 5b                	pop    %r11
    19ec:	41 5a                	pop    %r10
    19ee:	41 59                	pop    %r9
    19f0:	41 58                	pop    %r8
    19f2:	5d                   	pop    %rbp
    19f3:	48 83 c4 08          	add    $0x8,%rsp
    19f7:	5e                   	pop    %rsi
    19f8:	5f                   	pop    %rdi
    19f9:	5a                   	pop    %rdx
    19fa:	59                   	pop    %rcx
    19fb:	5b                   	pop    %rbx
    19fc:	58                   	pop    %rax
    19fd:	48 89 6c 24 38       	mov    %rbp,0x38(%rsp)
    1a02:	48 cf                	iretq  

0000000000001a04 <intr_handler_90>:
    1a04:	55                   	push   %rbp
    1a05:	48 89 e5             	mov    %rsp,%rbp
    1a08:	50                   	push   %rax
    1a09:	53                   	push   %rbx
    1a0a:	51                   	push   %rcx
    1a0b:	52                   	push   %rdx
    1a0c:	57                   	push   %rdi
    1a0d:	56                   	push   %rsi
    1a0e:	54                   	push   %rsp
    1a0f:	55                   	push   %rbp
    1a10:	41 50                	push   %r8
    1a12:	41 51                	push   %r9
    1a14:	41 52                	push   %r10
    1a16:	41 53                	push   %r11
    1a18:	41 54                	push   %r12
    1a1a:	41 55                	push   %r13
    1a1c:	41 56                	push   %r14
    1a1e:	41 57                	push   %r15
    1a20:	9c                   	pushfq 
    1a21:	bf 5a 00 00 00       	mov    $0x5a,%edi
    1a26:	e8 00 00 00 00       	callq  1a2b <intr_handler_90+0x27>
    1a2b:	9d                   	popfq  
    1a2c:	41 5f                	pop    %r15
    1a2e:	41 5e                	pop    %r14
    1a30:	41 5d                	pop    %r13
    1a32:	41 5c                	pop    %r12
    1a34:	41 5b                	pop    %r11
    1a36:	41 5a                	pop    %r10
    1a38:	41 59                	pop    %r9
    1a3a:	41 58                	pop    %r8
    1a3c:	5d                   	pop    %rbp
    1a3d:	48 83 c4 08          	add    $0x8,%rsp
    1a41:	5e                   	pop    %rsi
    1a42:	5f                   	pop    %rdi
    1a43:	5a                   	pop    %rdx
    1a44:	59                   	pop    %rcx
    1a45:	5b                   	pop    %rbx
    1a46:	58                   	pop    %rax
    1a47:	48 89 6c 24 38       	mov    %rbp,0x38(%rsp)
    1a4c:	48 cf                	iretq  

0000000000001a4e <intr_handler_91>:
    1a4e:	55                   	push   %rbp
    1a4f:	48 89 e5             	mov    %rsp,%rbp
    1a52:	50                   	push   %rax
    1a53:	53                   	push   %rbx
    1a54:	51                   	push   %rcx
    1a55:	52                   	push   %rdx
    1a56:	57                   	push   %rdi
    1a57:	56                   	push   %rsi
    1a58:	54                   	push   %rsp
    1a59:	55                   	push   %rbp
    1a5a:	41 50                	push   %r8
    1a5c:	41 51                	push   %r9
    1a5e:	41 52                	push   %r10
    1a60:	41 53                	push   %r11
    1a62:	41 54                	push   %r12
    1a64:	41 55                	push   %r13
    1a66:	41 56                	push   %r14
    1a68:	41 57                	push   %r15
    1a6a:	9c                   	pushfq 
    1a6b:	bf 5b 00 00 00       	mov    $0x5b,%edi
    1a70:	e8 00 00 00 00       	callq  1a75 <intr_handler_91+0x27>
    1a75:	9d                   	popfq  
    1a76:	41 5f                	pop    %r15
    1a78:	41 5e                	pop    %r14
    1a7a:	41 5d                	pop    %r13
    1a7c:	41 5c                	pop    %r12
    1a7e:	41 5b                	pop    %r11
    1a80:	41 5a                	pop    %r10
    1a82:	41 59                	pop    %r9
    1a84:	41 58                	pop    %r8
    1a86:	5d                   	pop    %rbp
    1a87:	48 83 c4 08          	add    $0x8,%rsp
    1a8b:	5e                   	pop    %rsi
    1a8c:	5f                   	pop    %rdi
    1a8d:	5a                   	pop    %rdx
    1a8e:	59                   	pop    %rcx
    1a8f:	5b                   	pop    %rbx
    1a90:	58                   	pop    %rax
    1a91:	48 89 6c 24 38       	mov    %rbp,0x38(%rsp)
    1a96:	48 cf                	iretq  

0000000000001a98 <intr_handler_92>:
    1a98:	55                   	push   %rbp
    1a99:	48 89 e5             	mov    %rsp,%rbp
    1a9c:	50                   	push   %rax
    1a9d:	53                   	push   %rbx
    1a9e:	51                   	push   %rcx
    1a9f:	52                   	push   %rdx
    1aa0:	57                   	push   %rdi
    1aa1:	56                   	push   %rsi
    1aa2:	54                   	push   %rsp
    1aa3:	55                   	push   %rbp
    1aa4:	41 50                	push   %r8
    1aa6:	41 51                	push   %r9
    1aa8:	41 52                	push   %r10
    1aaa:	41 53                	push   %r11
    1aac:	41 54                	push   %r12
    1aae:	41 55                	push   %r13
    1ab0:	41 56                	push   %r14
    1ab2:	41 57                	push   %r15
    1ab4:	9c                   	pushfq 
    1ab5:	bf 5c 00 00 00       	mov    $0x5c,%edi
    1aba:	e8 00 00 00 00       	callq  1abf <intr_handler_92+0x27>
    1abf:	9d                   	popfq  
    1ac0:	41 5f                	pop    %r15
    1ac2:	41 5e                	pop    %r14
    1ac4:	41 5d                	pop    %r13
    1ac6:	41 5c                	pop    %r12
    1ac8:	41 5b                	pop    %r11
    1aca:	41 5a                	pop    %r10
    1acc:	41 59                	pop    %r9
    1ace:	41 58                	pop    %r8
    1ad0:	5d                   	pop    %rbp
    1ad1:	48 83 c4 08          	add    $0x8,%rsp
    1ad5:	5e                   	pop    %rsi
    1ad6:	5f                   	pop    %rdi
    1ad7:	5a                   	pop    %rdx
    1ad8:	59                   	pop    %rcx
    1ad9:	5b                   	pop    %rbx
    1ada:	58                   	pop    %rax
    1adb:	48 89 6c 24 38       	mov    %rbp,0x38(%rsp)
    1ae0:	48 cf                	iretq  

0000000000001ae2 <intr_handler_93>:
    1ae2:	55                   	push   %rbp
    1ae3:	48 89 e5             	mov    %rsp,%rbp
    1ae6:	50                   	push   %rax
    1ae7:	53                   	push   %rbx
    1ae8:	51                   	push   %rcx
    1ae9:	52                   	push   %rdx
    1aea:	57                   	push   %rdi
    1aeb:	56                   	push   %rsi
    1aec:	54                   	push   %rsp
    1aed:	55                   	push   %rbp
    1aee:	41 50                	push   %r8
    1af0:	41 51                	push   %r9
    1af2:	41 52                	push   %r10
    1af4:	41 53                	push   %r11
    1af6:	41 54                	push   %r12
    1af8:	41 55                	push   %r13
    1afa:	41 56                	push   %r14
    1afc:	41 57                	push   %r15
    1afe:	9c                   	pushfq 
    1aff:	bf 5d 00 00 00       	mov    $0x5d,%edi
    1b04:	e8 00 00 00 00       	callq  1b09 <intr_handler_93+0x27>
    1b09:	9d                   	popfq  
    1b0a:	41 5f                	pop    %r15
    1b0c:	41 5e                	pop    %r14
    1b0e:	41 5d                	pop    %r13
    1b10:	41 5c                	pop    %r12
    1b12:	41 5b                	pop    %r11
    1b14:	41 5a                	pop    %r10
    1b16:	41 59                	pop    %r9
    1b18:	41 58                	pop    %r8
    1b1a:	5d                   	pop    %rbp
    1b1b:	48 83 c4 08          	add    $0x8,%rsp
    1b1f:	5e                   	pop    %rsi
    1b20:	5f                   	pop    %rdi
    1b21:	5a                   	pop    %rdx
    1b22:	59                   	pop    %rcx
    1b23:	5b                   	pop    %rbx
    1b24:	58                   	pop    %rax
    1b25:	48 89 6c 24 38       	mov    %rbp,0x38(%rsp)
    1b2a:	48 cf                	iretq  

0000000000001b2c <intr_handler_94>:
    1b2c:	55                   	push   %rbp
    1b2d:	48 89 e5             	mov    %rsp,%rbp
    1b30:	50                   	push   %rax
    1b31:	53                   	push   %rbx
    1b32:	51                   	push   %rcx
    1b33:	52                   	push   %rdx
    1b34:	57                   	push   %rdi
    1b35:	56                   	push   %rsi
    1b36:	54                   	push   %rsp
    1b37:	55                   	push   %rbp
    1b38:	41 50                	push   %r8
    1b3a:	41 51                	push   %r9
    1b3c:	41 52                	push   %r10
    1b3e:	41 53                	push   %r11
    1b40:	41 54                	push   %r12
    1b42:	41 55                	push   %r13
    1b44:	41 56                	push   %r14
    1b46:	41 57                	push   %r15
    1b48:	9c                   	pushfq 
    1b49:	bf 5e 00 00 00       	mov    $0x5e,%edi
    1b4e:	e8 00 00 00 00       	callq  1b53 <intr_handler_94+0x27>
    1b53:	9d                   	popfq  
    1b54:	41 5f                	pop    %r15
    1b56:	41 5e                	pop    %r14
    1b58:	41 5d                	pop    %r13
    1b5a:	41 5c                	pop    %r12
    1b5c:	41 5b                	pop    %r11
    1b5e:	41 5a                	pop    %r10
    1b60:	41 59                	pop    %r9
    1b62:	41 58                	pop    %r8
    1b64:	5d                   	pop    %rbp
    1b65:	48 83 c4 08          	add    $0x8,%rsp
    1b69:	5e                   	pop    %rsi
    1b6a:	5f                   	pop    %rdi
    1b6b:	5a                   	pop    %rdx
    1b6c:	59                   	pop    %rcx
    1b6d:	5b                   	pop    %rbx
    1b6e:	58                   	pop    %rax
    1b6f:	48 89 6c 24 38       	mov    %rbp,0x38(%rsp)
    1b74:	48 cf                	iretq  

0000000000001b76 <intr_handler_95>:
    1b76:	55                   	push   %rbp
    1b77:	48 89 e5             	mov    %rsp,%rbp
    1b7a:	50                   	push   %rax
    1b7b:	53                   	push   %rbx
    1b7c:	51                   	push   %rcx
    1b7d:	52                   	push   %rdx
    1b7e:	57                   	push   %rdi
    1b7f:	56                   	push   %rsi
    1b80:	54                   	push   %rsp
    1b81:	55                   	push   %rbp
    1b82:	41 50                	push   %r8
    1b84:	41 51                	push   %r9
    1b86:	41 52                	push   %r10
    1b88:	41 53                	push   %r11
    1b8a:	41 54                	push   %r12
    1b8c:	41 55                	push   %r13
    1b8e:	41 56                	push   %r14
    1b90:	41 57                	push   %r15
    1b92:	9c                   	pushfq 
    1b93:	bf 5f 00 00 00       	mov    $0x5f,%edi
    1b98:	e8 00 00 00 00       	callq  1b9d <intr_handler_95+0x27>
    1b9d:	9d                   	popfq  
    1b9e:	41 5f                	pop    %r15
    1ba0:	41 5e                	pop    %r14
    1ba2:	41 5d                	pop    %r13
    1ba4:	41 5c                	pop    %r12
    1ba6:	41 5b                	pop    %r11
    1ba8:	41 5a                	pop    %r10
    1baa:	41 59                	pop    %r9
    1bac:	41 58                	pop    %r8
    1bae:	5d                   	pop    %rbp
    1baf:	48 83 c4 08          	add    $0x8,%rsp
    1bb3:	5e                   	pop    %rsi
    1bb4:	5f                   	pop    %rdi
    1bb5:	5a                   	pop    %rdx
    1bb6:	59                   	pop    %rcx
    1bb7:	5b                   	pop    %rbx
    1bb8:	58                   	pop    %rax
    1bb9:	48 89 6c 24 38       	mov    %rbp,0x38(%rsp)
    1bbe:	48 cf                	iretq  

0000000000001bc0 <intr_handler_96>:
    1bc0:	55                   	push   %rbp
    1bc1:	48 89 e5             	mov    %rsp,%rbp
    1bc4:	50                   	push   %rax
    1bc5:	53                   	push   %rbx
    1bc6:	51                   	push   %rcx
    1bc7:	52                   	push   %rdx
    1bc8:	57                   	push   %rdi
    1bc9:	56                   	push   %rsi
    1bca:	54                   	push   %rsp
    1bcb:	55                   	push   %rbp
    1bcc:	41 50                	push   %r8
    1bce:	41 51                	push   %r9
    1bd0:	41 52                	push   %r10
    1bd2:	41 53                	push   %r11
    1bd4:	41 54                	push   %r12
    1bd6:	41 55                	push   %r13
    1bd8:	41 56                	push   %r14
    1bda:	41 57                	push   %r15
    1bdc:	9c                   	pushfq 
    1bdd:	bf 60 00 00 00       	mov    $0x60,%edi
    1be2:	e8 00 00 00 00       	callq  1be7 <intr_handler_96+0x27>
    1be7:	9d                   	popfq  
    1be8:	41 5f                	pop    %r15
    1bea:	41 5e                	pop    %r14
    1bec:	41 5d                	pop    %r13
    1bee:	41 5c                	pop    %r12
    1bf0:	41 5b                	pop    %r11
    1bf2:	41 5a                	pop    %r10
    1bf4:	41 59                	pop    %r9
    1bf6:	41 58                	pop    %r8
    1bf8:	5d                   	pop    %rbp
    1bf9:	48 83 c4 08          	add    $0x8,%rsp
    1bfd:	5e                   	pop    %rsi
    1bfe:	5f                   	pop    %rdi
    1bff:	5a                   	pop    %rdx
    1c00:	59                   	pop    %rcx
    1c01:	5b                   	pop    %rbx
    1c02:	58                   	pop    %rax
    1c03:	48 89 6c 24 38       	mov    %rbp,0x38(%rsp)
    1c08:	48 cf                	iretq  

0000000000001c0a <intr_handler_97>:
    1c0a:	55                   	push   %rbp
    1c0b:	48 89 e5             	mov    %rsp,%rbp
    1c0e:	50                   	push   %rax
    1c0f:	53                   	push   %rbx
    1c10:	51                   	push   %rcx
    1c11:	52                   	push   %rdx
    1c12:	57                   	push   %rdi
    1c13:	56                   	push   %rsi
    1c14:	54                   	push   %rsp
    1c15:	55                   	push   %rbp
    1c16:	41 50                	push   %r8
    1c18:	41 51                	push   %r9
    1c1a:	41 52                	push   %r10
    1c1c:	41 53                	push   %r11
    1c1e:	41 54                	push   %r12
    1c20:	41 55                	push   %r13
    1c22:	41 56                	push   %r14
    1c24:	41 57                	push   %r15
    1c26:	9c                   	pushfq 
    1c27:	bf 61 00 00 00       	mov    $0x61,%edi
    1c2c:	e8 00 00 00 00       	callq  1c31 <intr_handler_97+0x27>
    1c31:	9d                   	popfq  
    1c32:	41 5f                	pop    %r15
    1c34:	41 5e                	pop    %r14
    1c36:	41 5d                	pop    %r13
    1c38:	41 5c                	pop    %r12
    1c3a:	41 5b                	pop    %r11
    1c3c:	41 5a                	pop    %r10
    1c3e:	41 59                	pop    %r9
    1c40:	41 58                	pop    %r8
    1c42:	5d                   	pop    %rbp
    1c43:	48 83 c4 08          	add    $0x8,%rsp
    1c47:	5e                   	pop    %rsi
    1c48:	5f                   	pop    %rdi
    1c49:	5a                   	pop    %rdx
    1c4a:	59                   	pop    %rcx
    1c4b:	5b                   	pop    %rbx
    1c4c:	58                   	pop    %rax
    1c4d:	48 89 6c 24 38       	mov    %rbp,0x38(%rsp)
    1c52:	48 cf                	iretq  

0000000000001c54 <intr_handler_98>:
    1c54:	55                   	push   %rbp
    1c55:	48 89 e5             	mov    %rsp,%rbp
    1c58:	50                   	push   %rax
    1c59:	53                   	push   %rbx
    1c5a:	51                   	push   %rcx
    1c5b:	52                   	push   %rdx
    1c5c:	57                   	push   %rdi
    1c5d:	56                   	push   %rsi
    1c5e:	54                   	push   %rsp
    1c5f:	55                   	push   %rbp
    1c60:	41 50                	push   %r8
    1c62:	41 51                	push   %r9
    1c64:	41 52                	push   %r10
    1c66:	41 53                	push   %r11
    1c68:	41 54                	push   %r12
    1c6a:	41 55                	push   %r13
    1c6c:	41 56                	push   %r14
    1c6e:	41 57                	push   %r15
    1c70:	9c                   	pushfq 
    1c71:	bf 62 00 00 00       	mov    $0x62,%edi
    1c76:	e8 00 00 00 00       	callq  1c7b <intr_handler_98+0x27>
    1c7b:	9d                   	popfq  
    1c7c:	41 5f                	pop    %r15
    1c7e:	41 5e                	pop    %r14
    1c80:	41 5d                	pop    %r13
    1c82:	41 5c                	pop    %r12
    1c84:	41 5b                	pop    %r11
    1c86:	41 5a                	pop    %r10
    1c88:	41 59                	pop    %r9
    1c8a:	41 58                	pop    %r8
    1c8c:	5d                   	pop    %rbp
    1c8d:	48 83 c4 08          	add    $0x8,%rsp
    1c91:	5e                   	pop    %rsi
    1c92:	5f                   	pop    %rdi
    1c93:	5a                   	pop    %rdx
    1c94:	59                   	pop    %rcx
    1c95:	5b                   	pop    %rbx
    1c96:	58                   	pop    %rax
    1c97:	48 89 6c 24 38       	mov    %rbp,0x38(%rsp)
    1c9c:	48 cf                	iretq  

0000000000001c9e <intr_handler_99>:
    1c9e:	55                   	push   %rbp
    1c9f:	48 89 e5             	mov    %rsp,%rbp
    1ca2:	50                   	push   %rax
    1ca3:	53                   	push   %rbx
    1ca4:	51                   	push   %rcx
    1ca5:	52                   	push   %rdx
    1ca6:	57                   	push   %rdi
    1ca7:	56                   	push   %rsi
    1ca8:	54                   	push   %rsp
    1ca9:	55                   	push   %rbp
    1caa:	41 50                	push   %r8
    1cac:	41 51                	push   %r9
    1cae:	41 52                	push   %r10
    1cb0:	41 53                	push   %r11
    1cb2:	41 54                	push   %r12
    1cb4:	41 55                	push   %r13
    1cb6:	41 56                	push   %r14
    1cb8:	41 57                	push   %r15
    1cba:	9c                   	pushfq 
    1cbb:	bf 63 00 00 00       	mov    $0x63,%edi
    1cc0:	e8 00 00 00 00       	callq  1cc5 <intr_handler_99+0x27>
    1cc5:	9d                   	popfq  
    1cc6:	41 5f                	pop    %r15
    1cc8:	41 5e                	pop    %r14
    1cca:	41 5d                	pop    %r13
    1ccc:	41 5c                	pop    %r12
    1cce:	41 5b                	pop    %r11
    1cd0:	41 5a                	pop    %r10
    1cd2:	41 59                	pop    %r9
    1cd4:	41 58                	pop    %r8
    1cd6:	5d                   	pop    %rbp
    1cd7:	48 83 c4 08          	add    $0x8,%rsp
    1cdb:	5e                   	pop    %rsi
    1cdc:	5f                   	pop    %rdi
    1cdd:	5a                   	pop    %rdx
    1cde:	59                   	pop    %rcx
    1cdf:	5b                   	pop    %rbx
    1ce0:	58                   	pop    %rax
    1ce1:	48 89 6c 24 38       	mov    %rbp,0x38(%rsp)
    1ce6:	48 cf                	iretq  

0000000000001ce8 <intr_handler_100>:
    1ce8:	55                   	push   %rbp
    1ce9:	48 89 e5             	mov    %rsp,%rbp
    1cec:	50                   	push   %rax
    1ced:	53                   	push   %rbx
    1cee:	51                   	push   %rcx
    1cef:	52                   	push   %rdx
    1cf0:	57                   	push   %rdi
    1cf1:	56                   	push   %rsi
    1cf2:	54                   	push   %rsp
    1cf3:	55                   	push   %rbp
    1cf4:	41 50                	push   %r8
    1cf6:	41 51                	push   %r9
    1cf8:	41 52                	push   %r10
    1cfa:	41 53                	push   %r11
    1cfc:	41 54                	push   %r12
    1cfe:	41 55                	push   %r13
    1d00:	41 56                	push   %r14
    1d02:	41 57                	push   %r15
    1d04:	9c                   	pushfq 
    1d05:	bf 64 00 00 00       	mov    $0x64,%edi
    1d0a:	e8 00 00 00 00       	callq  1d0f <intr_handler_100+0x27>
    1d0f:	9d                   	popfq  
    1d10:	41 5f                	pop    %r15
    1d12:	41 5e                	pop    %r14
    1d14:	41 5d                	pop    %r13
    1d16:	41 5c                	pop    %r12
    1d18:	41 5b                	pop    %r11
    1d1a:	41 5a                	pop    %r10
    1d1c:	41 59                	pop    %r9
    1d1e:	41 58                	pop    %r8
    1d20:	5d                   	pop    %rbp
    1d21:	48 83 c4 08          	add    $0x8,%rsp
    1d25:	5e                   	pop    %rsi
    1d26:	5f                   	pop    %rdi
    1d27:	5a                   	pop    %rdx
    1d28:	59                   	pop    %rcx
    1d29:	5b                   	pop    %rbx
    1d2a:	58                   	pop    %rax
    1d2b:	48 89 6c 24 38       	mov    %rbp,0x38(%rsp)
    1d30:	48 cf                	iretq  

0000000000001d32 <intr_handler_101>:
    1d32:	55                   	push   %rbp
    1d33:	48 89 e5             	mov    %rsp,%rbp
    1d36:	50                   	push   %rax
    1d37:	53                   	push   %rbx
    1d38:	51                   	push   %rcx
    1d39:	52                   	push   %rdx
    1d3a:	57                   	push   %rdi
    1d3b:	56                   	push   %rsi
    1d3c:	54                   	push   %rsp
    1d3d:	55                   	push   %rbp
    1d3e:	41 50                	push   %r8
    1d40:	41 51                	push   %r9
    1d42:	41 52                	push   %r10
    1d44:	41 53                	push   %r11
    1d46:	41 54                	push   %r12
    1d48:	41 55                	push   %r13
    1d4a:	41 56                	push   %r14
    1d4c:	41 57                	push   %r15
    1d4e:	9c                   	pushfq 
    1d4f:	bf 65 00 00 00       	mov    $0x65,%edi
    1d54:	e8 00 00 00 00       	callq  1d59 <intr_handler_101+0x27>
    1d59:	9d                   	popfq  
    1d5a:	41 5f                	pop    %r15
    1d5c:	41 5e                	pop    %r14
    1d5e:	41 5d                	pop    %r13
    1d60:	41 5c                	pop    %r12
    1d62:	41 5b                	pop    %r11
    1d64:	41 5a                	pop    %r10
    1d66:	41 59                	pop    %r9
    1d68:	41 58                	pop    %r8
    1d6a:	5d                   	pop    %rbp
    1d6b:	48 83 c4 08          	add    $0x8,%rsp
    1d6f:	5e                   	pop    %rsi
    1d70:	5f                   	pop    %rdi
    1d71:	5a                   	pop    %rdx
    1d72:	59                   	pop    %rcx
    1d73:	5b                   	pop    %rbx
    1d74:	58                   	pop    %rax
    1d75:	48 89 6c 24 38       	mov    %rbp,0x38(%rsp)
    1d7a:	48 cf                	iretq  

0000000000001d7c <intr_handler_102>:
    1d7c:	55                   	push   %rbp
    1d7d:	48 89 e5             	mov    %rsp,%rbp
    1d80:	50                   	push   %rax
    1d81:	53                   	push   %rbx
    1d82:	51                   	push   %rcx
    1d83:	52                   	push   %rdx
    1d84:	57                   	push   %rdi
    1d85:	56                   	push   %rsi
    1d86:	54                   	push   %rsp
    1d87:	55                   	push   %rbp
    1d88:	41 50                	push   %r8
    1d8a:	41 51                	push   %r9
    1d8c:	41 52                	push   %r10
    1d8e:	41 53                	push   %r11
    1d90:	41 54                	push   %r12
    1d92:	41 55                	push   %r13
    1d94:	41 56                	push   %r14
    1d96:	41 57                	push   %r15
    1d98:	9c                   	pushfq 
    1d99:	bf 66 00 00 00       	mov    $0x66,%edi
    1d9e:	e8 00 00 00 00       	callq  1da3 <intr_handler_102+0x27>
    1da3:	9d                   	popfq  
    1da4:	41 5f                	pop    %r15
    1da6:	41 5e                	pop    %r14
    1da8:	41 5d                	pop    %r13
    1daa:	41 5c                	pop    %r12
    1dac:	41 5b                	pop    %r11
    1dae:	41 5a                	pop    %r10
    1db0:	41 59                	pop    %r9
    1db2:	41 58                	pop    %r8
    1db4:	5d                   	pop    %rbp
    1db5:	48 83 c4 08          	add    $0x8,%rsp
    1db9:	5e                   	pop    %rsi
    1dba:	5f                   	pop    %rdi
    1dbb:	5a                   	pop    %rdx
    1dbc:	59                   	pop    %rcx
    1dbd:	5b                   	pop    %rbx
    1dbe:	58                   	pop    %rax
    1dbf:	48 89 6c 24 38       	mov    %rbp,0x38(%rsp)
    1dc4:	48 cf                	iretq  

0000000000001dc6 <intr_handler_103>:
    1dc6:	55                   	push   %rbp
    1dc7:	48 89 e5             	mov    %rsp,%rbp
    1dca:	50                   	push   %rax
    1dcb:	53                   	push   %rbx
    1dcc:	51                   	push   %rcx
    1dcd:	52                   	push   %rdx
    1dce:	57                   	push   %rdi
    1dcf:	56                   	push   %rsi
    1dd0:	54                   	push   %rsp
    1dd1:	55                   	push   %rbp
    1dd2:	41 50                	push   %r8
    1dd4:	41 51                	push   %r9
    1dd6:	41 52                	push   %r10
    1dd8:	41 53                	push   %r11
    1dda:	41 54                	push   %r12
    1ddc:	41 55                	push   %r13
    1dde:	41 56                	push   %r14
    1de0:	41 57                	push   %r15
    1de2:	9c                   	pushfq 
    1de3:	bf 67 00 00 00       	mov    $0x67,%edi
    1de8:	e8 00 00 00 00       	callq  1ded <intr_handler_103+0x27>
    1ded:	9d                   	popfq  
    1dee:	41 5f                	pop    %r15
    1df0:	41 5e                	pop    %r14
    1df2:	41 5d                	pop    %r13
    1df4:	41 5c                	pop    %r12
    1df6:	41 5b                	pop    %r11
    1df8:	41 5a                	pop    %r10
    1dfa:	41 59                	pop    %r9
    1dfc:	41 58                	pop    %r8
    1dfe:	5d                   	pop    %rbp
    1dff:	48 83 c4 08          	add    $0x8,%rsp
    1e03:	5e                   	pop    %rsi
    1e04:	5f                   	pop    %rdi
    1e05:	5a                   	pop    %rdx
    1e06:	59                   	pop    %rcx
    1e07:	5b                   	pop    %rbx
    1e08:	58                   	pop    %rax
    1e09:	48 89 6c 24 38       	mov    %rbp,0x38(%rsp)
    1e0e:	48 cf                	iretq  

0000000000001e10 <intr_handler_104>:
    1e10:	55                   	push   %rbp
    1e11:	48 89 e5             	mov    %rsp,%rbp
    1e14:	50                   	push   %rax
    1e15:	53                   	push   %rbx
    1e16:	51                   	push   %rcx
    1e17:	52                   	push   %rdx
    1e18:	57                   	push   %rdi
    1e19:	56                   	push   %rsi
    1e1a:	54                   	push   %rsp
    1e1b:	55                   	push   %rbp
    1e1c:	41 50                	push   %r8
    1e1e:	41 51                	push   %r9
    1e20:	41 52                	push   %r10
    1e22:	41 53                	push   %r11
    1e24:	41 54                	push   %r12
    1e26:	41 55                	push   %r13
    1e28:	41 56                	push   %r14
    1e2a:	41 57                	push   %r15
    1e2c:	9c                   	pushfq 
    1e2d:	bf 68 00 00 00       	mov    $0x68,%edi
    1e32:	e8 00 00 00 00       	callq  1e37 <intr_handler_104+0x27>
    1e37:	9d                   	popfq  
    1e38:	41 5f                	pop    %r15
    1e3a:	41 5e                	pop    %r14
    1e3c:	41 5d                	pop    %r13
    1e3e:	41 5c                	pop    %r12
    1e40:	41 5b                	pop    %r11
    1e42:	41 5a                	pop    %r10
    1e44:	41 59                	pop    %r9
    1e46:	41 58                	pop    %r8
    1e48:	5d                   	pop    %rbp
    1e49:	48 83 c4 08          	add    $0x8,%rsp
    1e4d:	5e                   	pop    %rsi
    1e4e:	5f                   	pop    %rdi
    1e4f:	5a                   	pop    %rdx
    1e50:	59                   	pop    %rcx
    1e51:	5b                   	pop    %rbx
    1e52:	58                   	pop    %rax
    1e53:	48 89 6c 24 38       	mov    %rbp,0x38(%rsp)
    1e58:	48 cf                	iretq  

0000000000001e5a <intr_handler_105>:
    1e5a:	55                   	push   %rbp
    1e5b:	48 89 e5             	mov    %rsp,%rbp
    1e5e:	50                   	push   %rax
    1e5f:	53                   	push   %rbx
    1e60:	51                   	push   %rcx
    1e61:	52                   	push   %rdx
    1e62:	57                   	push   %rdi
    1e63:	56                   	push   %rsi
    1e64:	54                   	push   %rsp
    1e65:	55                   	push   %rbp
    1e66:	41 50                	push   %r8
    1e68:	41 51                	push   %r9
    1e6a:	41 52                	push   %r10
    1e6c:	41 53                	push   %r11
    1e6e:	41 54                	push   %r12
    1e70:	41 55                	push   %r13
    1e72:	41 56                	push   %r14
    1e74:	41 57                	push   %r15
    1e76:	9c                   	pushfq 
    1e77:	bf 69 00 00 00       	mov    $0x69,%edi
    1e7c:	e8 00 00 00 00       	callq  1e81 <intr_handler_105+0x27>
    1e81:	9d                   	popfq  
    1e82:	41 5f                	pop    %r15
    1e84:	41 5e                	pop    %r14
    1e86:	41 5d                	pop    %r13
    1e88:	41 5c                	pop    %r12
    1e8a:	41 5b                	pop    %r11
    1e8c:	41 5a                	pop    %r10
    1e8e:	41 59                	pop    %r9
    1e90:	41 58                	pop    %r8
    1e92:	5d                   	pop    %rbp
    1e93:	48 83 c4 08          	add    $0x8,%rsp
    1e97:	5e                   	pop    %rsi
    1e98:	5f                   	pop    %rdi
    1e99:	5a                   	pop    %rdx
    1e9a:	59                   	pop    %rcx
    1e9b:	5b                   	pop    %rbx
    1e9c:	58                   	pop    %rax
    1e9d:	48 89 6c 24 38       	mov    %rbp,0x38(%rsp)
    1ea2:	48 cf                	iretq  

0000000000001ea4 <intr_handler_106>:
    1ea4:	55                   	push   %rbp
    1ea5:	48 89 e5             	mov    %rsp,%rbp
    1ea8:	50                   	push   %rax
    1ea9:	53                   	push   %rbx
    1eaa:	51                   	push   %rcx
    1eab:	52                   	push   %rdx
    1eac:	57                   	push   %rdi
    1ead:	56                   	push   %rsi
    1eae:	54                   	push   %rsp
    1eaf:	55                   	push   %rbp
    1eb0:	41 50                	push   %r8
    1eb2:	41 51                	push   %r9
    1eb4:	41 52                	push   %r10
    1eb6:	41 53                	push   %r11
    1eb8:	41 54                	push   %r12
    1eba:	41 55                	push   %r13
    1ebc:	41 56                	push   %r14
    1ebe:	41 57                	push   %r15
    1ec0:	9c                   	pushfq 
    1ec1:	bf 6a 00 00 00       	mov    $0x6a,%edi
    1ec6:	e8 00 00 00 00       	callq  1ecb <intr_handler_106+0x27>
    1ecb:	9d                   	popfq  
    1ecc:	41 5f                	pop    %r15
    1ece:	41 5e                	pop    %r14
    1ed0:	41 5d                	pop    %r13
    1ed2:	41 5c                	pop    %r12
    1ed4:	41 5b                	pop    %r11
    1ed6:	41 5a                	pop    %r10
    1ed8:	41 59                	pop    %r9
    1eda:	41 58                	pop    %r8
    1edc:	5d                   	pop    %rbp
    1edd:	48 83 c4 08          	add    $0x8,%rsp
    1ee1:	5e                   	pop    %rsi
    1ee2:	5f                   	pop    %rdi
    1ee3:	5a                   	pop    %rdx
    1ee4:	59                   	pop    %rcx
    1ee5:	5b                   	pop    %rbx
    1ee6:	58                   	pop    %rax
    1ee7:	48 89 6c 24 38       	mov    %rbp,0x38(%rsp)
    1eec:	48 cf                	iretq  

0000000000001eee <intr_handler_107>:
    1eee:	55                   	push   %rbp
    1eef:	48 89 e5             	mov    %rsp,%rbp
    1ef2:	50                   	push   %rax
    1ef3:	53                   	push   %rbx
    1ef4:	51                   	push   %rcx
    1ef5:	52                   	push   %rdx
    1ef6:	57                   	push   %rdi
    1ef7:	56                   	push   %rsi
    1ef8:	54                   	push   %rsp
    1ef9:	55                   	push   %rbp
    1efa:	41 50                	push   %r8
    1efc:	41 51                	push   %r9
    1efe:	41 52                	push   %r10
    1f00:	41 53                	push   %r11
    1f02:	41 54                	push   %r12
    1f04:	41 55                	push   %r13
    1f06:	41 56                	push   %r14
    1f08:	41 57                	push   %r15
    1f0a:	9c                   	pushfq 
    1f0b:	bf 6b 00 00 00       	mov    $0x6b,%edi
    1f10:	e8 00 00 00 00       	callq  1f15 <intr_handler_107+0x27>
    1f15:	9d                   	popfq  
    1f16:	41 5f                	pop    %r15
    1f18:	41 5e                	pop    %r14
    1f1a:	41 5d                	pop    %r13
    1f1c:	41 5c                	pop    %r12
    1f1e:	41 5b                	pop    %r11
    1f20:	41 5a                	pop    %r10
    1f22:	41 59                	pop    %r9
    1f24:	41 58                	pop    %r8
    1f26:	5d                   	pop    %rbp
    1f27:	48 83 c4 08          	add    $0x8,%rsp
    1f2b:	5e                   	pop    %rsi
    1f2c:	5f                   	pop    %rdi
    1f2d:	5a                   	pop    %rdx
    1f2e:	59                   	pop    %rcx
    1f2f:	5b                   	pop    %rbx
    1f30:	58                   	pop    %rax
    1f31:	48 89 6c 24 38       	mov    %rbp,0x38(%rsp)
    1f36:	48 cf                	iretq  

0000000000001f38 <intr_handler_108>:
    1f38:	55                   	push   %rbp
    1f39:	48 89 e5             	mov    %rsp,%rbp
    1f3c:	50                   	push   %rax
    1f3d:	53                   	push   %rbx
    1f3e:	51                   	push   %rcx
    1f3f:	52                   	push   %rdx
    1f40:	57                   	push   %rdi
    1f41:	56                   	push   %rsi
    1f42:	54                   	push   %rsp
    1f43:	55                   	push   %rbp
    1f44:	41 50                	push   %r8
    1f46:	41 51                	push   %r9
    1f48:	41 52                	push   %r10
    1f4a:	41 53                	push   %r11
    1f4c:	41 54                	push   %r12
    1f4e:	41 55                	push   %r13
    1f50:	41 56                	push   %r14
    1f52:	41 57                	push   %r15
    1f54:	9c                   	pushfq 
    1f55:	bf 6c 00 00 00       	mov    $0x6c,%edi
    1f5a:	e8 00 00 00 00       	callq  1f5f <intr_handler_108+0x27>
    1f5f:	9d                   	popfq  
    1f60:	41 5f                	pop    %r15
    1f62:	41 5e                	pop    %r14
    1f64:	41 5d                	pop    %r13
    1f66:	41 5c                	pop    %r12
    1f68:	41 5b                	pop    %r11
    1f6a:	41 5a                	pop    %r10
    1f6c:	41 59                	pop    %r9
    1f6e:	41 58                	pop    %r8
    1f70:	5d                   	pop    %rbp
    1f71:	48 83 c4 08          	add    $0x8,%rsp
    1f75:	5e                   	pop    %rsi
    1f76:	5f                   	pop    %rdi
    1f77:	5a                   	pop    %rdx
    1f78:	59                   	pop    %rcx
    1f79:	5b                   	pop    %rbx
    1f7a:	58                   	pop    %rax
    1f7b:	48 89 6c 24 38       	mov    %rbp,0x38(%rsp)
    1f80:	48 cf                	iretq  

0000000000001f82 <intr_handler_109>:
    1f82:	55                   	push   %rbp
    1f83:	48 89 e5             	mov    %rsp,%rbp
    1f86:	50                   	push   %rax
    1f87:	53                   	push   %rbx
    1f88:	51                   	push   %rcx
    1f89:	52                   	push   %rdx
    1f8a:	57                   	push   %rdi
    1f8b:	56                   	push   %rsi
    1f8c:	54                   	push   %rsp
    1f8d:	55                   	push   %rbp
    1f8e:	41 50                	push   %r8
    1f90:	41 51                	push   %r9
    1f92:	41 52                	push   %r10
    1f94:	41 53                	push   %r11
    1f96:	41 54                	push   %r12
    1f98:	41 55                	push   %r13
    1f9a:	41 56                	push   %r14
    1f9c:	41 57                	push   %r15
    1f9e:	9c                   	pushfq 
    1f9f:	bf 6d 00 00 00       	mov    $0x6d,%edi
    1fa4:	e8 00 00 00 00       	callq  1fa9 <intr_handler_109+0x27>
    1fa9:	9d                   	popfq  
    1faa:	41 5f                	pop    %r15
    1fac:	41 5e                	pop    %r14
    1fae:	41 5d                	pop    %r13
    1fb0:	41 5c                	pop    %r12
    1fb2:	41 5b                	pop    %r11
    1fb4:	41 5a                	pop    %r10
    1fb6:	41 59                	pop    %r9
    1fb8:	41 58                	pop    %r8
    1fba:	5d                   	pop    %rbp
    1fbb:	48 83 c4 08          	add    $0x8,%rsp
    1fbf:	5e                   	pop    %rsi
    1fc0:	5f                   	pop    %rdi
    1fc1:	5a                   	pop    %rdx
    1fc2:	59                   	pop    %rcx
    1fc3:	5b                   	pop    %rbx
    1fc4:	58                   	pop    %rax
    1fc5:	48 89 6c 24 38       	mov    %rbp,0x38(%rsp)
    1fca:	48 cf                	iretq  

0000000000001fcc <intr_handler_110>:
    1fcc:	55                   	push   %rbp
    1fcd:	48 89 e5             	mov    %rsp,%rbp
    1fd0:	50                   	push   %rax
    1fd1:	53                   	push   %rbx
    1fd2:	51                   	push   %rcx
    1fd3:	52                   	push   %rdx
    1fd4:	57                   	push   %rdi
    1fd5:	56                   	push   %rsi
    1fd6:	54                   	push   %rsp
    1fd7:	55                   	push   %rbp
    1fd8:	41 50                	push   %r8
    1fda:	41 51                	push   %r9
    1fdc:	41 52                	push   %r10
    1fde:	41 53                	push   %r11
    1fe0:	41 54                	push   %r12
    1fe2:	41 55                	push   %r13
    1fe4:	41 56                	push   %r14
    1fe6:	41 57                	push   %r15
    1fe8:	9c                   	pushfq 
    1fe9:	bf 6e 00 00 00       	mov    $0x6e,%edi
    1fee:	e8 00 00 00 00       	callq  1ff3 <intr_handler_110+0x27>
    1ff3:	9d                   	popfq  
    1ff4:	41 5f                	pop    %r15
    1ff6:	41 5e                	pop    %r14
    1ff8:	41 5d                	pop    %r13
    1ffa:	41 5c                	pop    %r12
    1ffc:	41 5b                	pop    %r11
    1ffe:	41 5a                	pop    %r10
    2000:	41 59                	pop    %r9
    2002:	41 58                	pop    %r8
    2004:	5d                   	pop    %rbp
    2005:	48 83 c4 08          	add    $0x8,%rsp
    2009:	5e                   	pop    %rsi
    200a:	5f                   	pop    %rdi
    200b:	5a                   	pop    %rdx
    200c:	59                   	pop    %rcx
    200d:	5b                   	pop    %rbx
    200e:	58                   	pop    %rax
    200f:	48 89 6c 24 38       	mov    %rbp,0x38(%rsp)
    2014:	48 cf                	iretq  

0000000000002016 <intr_handler_111>:
    2016:	55                   	push   %rbp
    2017:	48 89 e5             	mov    %rsp,%rbp
    201a:	50                   	push   %rax
    201b:	53                   	push   %rbx
    201c:	51                   	push   %rcx
    201d:	52                   	push   %rdx
    201e:	57                   	push   %rdi
    201f:	56                   	push   %rsi
    2020:	54                   	push   %rsp
    2021:	55                   	push   %rbp
    2022:	41 50                	push   %r8
    2024:	41 51                	push   %r9
    2026:	41 52                	push   %r10
    2028:	41 53                	push   %r11
    202a:	41 54                	push   %r12
    202c:	41 55                	push   %r13
    202e:	41 56                	push   %r14
    2030:	41 57                	push   %r15
    2032:	9c                   	pushfq 
    2033:	bf 6f 00 00 00       	mov    $0x6f,%edi
    2038:	e8 00 00 00 00       	callq  203d <intr_handler_111+0x27>
    203d:	9d                   	popfq  
    203e:	41 5f                	pop    %r15
    2040:	41 5e                	pop    %r14
    2042:	41 5d                	pop    %r13
    2044:	41 5c                	pop    %r12
    2046:	41 5b                	pop    %r11
    2048:	41 5a                	pop    %r10
    204a:	41 59                	pop    %r9
    204c:	41 58                	pop    %r8
    204e:	5d                   	pop    %rbp
    204f:	48 83 c4 08          	add    $0x8,%rsp
    2053:	5e                   	pop    %rsi
    2054:	5f                   	pop    %rdi
    2055:	5a                   	pop    %rdx
    2056:	59                   	pop    %rcx
    2057:	5b                   	pop    %rbx
    2058:	58                   	pop    %rax
    2059:	48 89 6c 24 38       	mov    %rbp,0x38(%rsp)
    205e:	48 cf                	iretq  

0000000000002060 <intr_handler_112>:
    2060:	55                   	push   %rbp
    2061:	48 89 e5             	mov    %rsp,%rbp
    2064:	50                   	push   %rax
    2065:	53                   	push   %rbx
    2066:	51                   	push   %rcx
    2067:	52                   	push   %rdx
    2068:	57                   	push   %rdi
    2069:	56                   	push   %rsi
    206a:	54                   	push   %rsp
    206b:	55                   	push   %rbp
    206c:	41 50                	push   %r8
    206e:	41 51                	push   %r9
    2070:	41 52                	push   %r10
    2072:	41 53                	push   %r11
    2074:	41 54                	push   %r12
    2076:	41 55                	push   %r13
    2078:	41 56                	push   %r14
    207a:	41 57                	push   %r15
    207c:	9c                   	pushfq 
    207d:	bf 70 00 00 00       	mov    $0x70,%edi
    2082:	e8 00 00 00 00       	callq  2087 <intr_handler_112+0x27>
    2087:	9d                   	popfq  
    2088:	41 5f                	pop    %r15
    208a:	41 5e                	pop    %r14
    208c:	41 5d                	pop    %r13
    208e:	41 5c                	pop    %r12
    2090:	41 5b                	pop    %r11
    2092:	41 5a                	pop    %r10
    2094:	41 59                	pop    %r9
    2096:	41 58                	pop    %r8
    2098:	5d                   	pop    %rbp
    2099:	48 83 c4 08          	add    $0x8,%rsp
    209d:	5e                   	pop    %rsi
    209e:	5f                   	pop    %rdi
    209f:	5a                   	pop    %rdx
    20a0:	59                   	pop    %rcx
    20a1:	5b                   	pop    %rbx
    20a2:	58                   	pop    %rax
    20a3:	48 89 6c 24 38       	mov    %rbp,0x38(%rsp)
    20a8:	48 cf                	iretq  

00000000000020aa <intr_handler_113>:
    20aa:	55                   	push   %rbp
    20ab:	48 89 e5             	mov    %rsp,%rbp
    20ae:	50                   	push   %rax
    20af:	53                   	push   %rbx
    20b0:	51                   	push   %rcx
    20b1:	52                   	push   %rdx
    20b2:	57                   	push   %rdi
    20b3:	56                   	push   %rsi
    20b4:	54                   	push   %rsp
    20b5:	55                   	push   %rbp
    20b6:	41 50                	push   %r8
    20b8:	41 51                	push   %r9
    20ba:	41 52                	push   %r10
    20bc:	41 53                	push   %r11
    20be:	41 54                	push   %r12
    20c0:	41 55                	push   %r13
    20c2:	41 56                	push   %r14
    20c4:	41 57                	push   %r15
    20c6:	9c                   	pushfq 
    20c7:	bf 71 00 00 00       	mov    $0x71,%edi
    20cc:	e8 00 00 00 00       	callq  20d1 <intr_handler_113+0x27>
    20d1:	9d                   	popfq  
    20d2:	41 5f                	pop    %r15
    20d4:	41 5e                	pop    %r14
    20d6:	41 5d                	pop    %r13
    20d8:	41 5c                	pop    %r12
    20da:	41 5b                	pop    %r11
    20dc:	41 5a                	pop    %r10
    20de:	41 59                	pop    %r9
    20e0:	41 58                	pop    %r8
    20e2:	5d                   	pop    %rbp
    20e3:	48 83 c4 08          	add    $0x8,%rsp
    20e7:	5e                   	pop    %rsi
    20e8:	5f                   	pop    %rdi
    20e9:	5a                   	pop    %rdx
    20ea:	59                   	pop    %rcx
    20eb:	5b                   	pop    %rbx
    20ec:	58                   	pop    %rax
    20ed:	48 89 6c 24 38       	mov    %rbp,0x38(%rsp)
    20f2:	48 cf                	iretq  

00000000000020f4 <intr_handler_114>:
    20f4:	55                   	push   %rbp
    20f5:	48 89 e5             	mov    %rsp,%rbp
    20f8:	50                   	push   %rax
    20f9:	53                   	push   %rbx
    20fa:	51                   	push   %rcx
    20fb:	52                   	push   %rdx
    20fc:	57                   	push   %rdi
    20fd:	56                   	push   %rsi
    20fe:	54                   	push   %rsp
    20ff:	55                   	push   %rbp
    2100:	41 50                	push   %r8
    2102:	41 51                	push   %r9
    2104:	41 52                	push   %r10
    2106:	41 53                	push   %r11
    2108:	41 54                	push   %r12
    210a:	41 55                	push   %r13
    210c:	41 56                	push   %r14
    210e:	41 57                	push   %r15
    2110:	9c                   	pushfq 
    2111:	bf 72 00 00 00       	mov    $0x72,%edi
    2116:	e8 00 00 00 00       	callq  211b <intr_handler_114+0x27>
    211b:	9d                   	popfq  
    211c:	41 5f                	pop    %r15
    211e:	41 5e                	pop    %r14
    2120:	41 5d                	pop    %r13
    2122:	41 5c                	pop    %r12
    2124:	41 5b                	pop    %r11
    2126:	41 5a                	pop    %r10
    2128:	41 59                	pop    %r9
    212a:	41 58                	pop    %r8
    212c:	5d                   	pop    %rbp
    212d:	48 83 c4 08          	add    $0x8,%rsp
    2131:	5e                   	pop    %rsi
    2132:	5f                   	pop    %rdi
    2133:	5a                   	pop    %rdx
    2134:	59                   	pop    %rcx
    2135:	5b                   	pop    %rbx
    2136:	58                   	pop    %rax
    2137:	48 89 6c 24 38       	mov    %rbp,0x38(%rsp)
    213c:	48 cf                	iretq  

000000000000213e <intr_handler_115>:
    213e:	55                   	push   %rbp
    213f:	48 89 e5             	mov    %rsp,%rbp
    2142:	50                   	push   %rax
    2143:	53                   	push   %rbx
    2144:	51                   	push   %rcx
    2145:	52                   	push   %rdx
    2146:	57                   	push   %rdi
    2147:	56                   	push   %rsi
    2148:	54                   	push   %rsp
    2149:	55                   	push   %rbp
    214a:	41 50                	push   %r8
    214c:	41 51                	push   %r9
    214e:	41 52                	push   %r10
    2150:	41 53                	push   %r11
    2152:	41 54                	push   %r12
    2154:	41 55                	push   %r13
    2156:	41 56                	push   %r14
    2158:	41 57                	push   %r15
    215a:	9c                   	pushfq 
    215b:	bf 73 00 00 00       	mov    $0x73,%edi
    2160:	e8 00 00 00 00       	callq  2165 <intr_handler_115+0x27>
    2165:	9d                   	popfq  
    2166:	41 5f                	pop    %r15
    2168:	41 5e                	pop    %r14
    216a:	41 5d                	pop    %r13
    216c:	41 5c                	pop    %r12
    216e:	41 5b                	pop    %r11
    2170:	41 5a                	pop    %r10
    2172:	41 59                	pop    %r9
    2174:	41 58                	pop    %r8
    2176:	5d                   	pop    %rbp
    2177:	48 83 c4 08          	add    $0x8,%rsp
    217b:	5e                   	pop    %rsi
    217c:	5f                   	pop    %rdi
    217d:	5a                   	pop    %rdx
    217e:	59                   	pop    %rcx
    217f:	5b                   	pop    %rbx
    2180:	58                   	pop    %rax
    2181:	48 89 6c 24 38       	mov    %rbp,0x38(%rsp)
    2186:	48 cf                	iretq  

0000000000002188 <intr_handler_116>:
    2188:	55                   	push   %rbp
    2189:	48 89 e5             	mov    %rsp,%rbp
    218c:	50                   	push   %rax
    218d:	53                   	push   %rbx
    218e:	51                   	push   %rcx
    218f:	52                   	push   %rdx
    2190:	57                   	push   %rdi
    2191:	56                   	push   %rsi
    2192:	54                   	push   %rsp
    2193:	55                   	push   %rbp
    2194:	41 50                	push   %r8
    2196:	41 51                	push   %r9
    2198:	41 52                	push   %r10
    219a:	41 53                	push   %r11
    219c:	41 54                	push   %r12
    219e:	41 55                	push   %r13
    21a0:	41 56                	push   %r14
    21a2:	41 57                	push   %r15
    21a4:	9c                   	pushfq 
    21a5:	bf 74 00 00 00       	mov    $0x74,%edi
    21aa:	e8 00 00 00 00       	callq  21af <intr_handler_116+0x27>
    21af:	9d                   	popfq  
    21b0:	41 5f                	pop    %r15
    21b2:	41 5e                	pop    %r14
    21b4:	41 5d                	pop    %r13
    21b6:	41 5c                	pop    %r12
    21b8:	41 5b                	pop    %r11
    21ba:	41 5a                	pop    %r10
    21bc:	41 59                	pop    %r9
    21be:	41 58                	pop    %r8
    21c0:	5d                   	pop    %rbp
    21c1:	48 83 c4 08          	add    $0x8,%rsp
    21c5:	5e                   	pop    %rsi
    21c6:	5f                   	pop    %rdi
    21c7:	5a                   	pop    %rdx
    21c8:	59                   	pop    %rcx
    21c9:	5b                   	pop    %rbx
    21ca:	58                   	pop    %rax
    21cb:	48 89 6c 24 38       	mov    %rbp,0x38(%rsp)
    21d0:	48 cf                	iretq  

00000000000021d2 <intr_handler_117>:
    21d2:	55                   	push   %rbp
    21d3:	48 89 e5             	mov    %rsp,%rbp
    21d6:	50                   	push   %rax
    21d7:	53                   	push   %rbx
    21d8:	51                   	push   %rcx
    21d9:	52                   	push   %rdx
    21da:	57                   	push   %rdi
    21db:	56                   	push   %rsi
    21dc:	54                   	push   %rsp
    21dd:	55                   	push   %rbp
    21de:	41 50                	push   %r8
    21e0:	41 51                	push   %r9
    21e2:	41 52                	push   %r10
    21e4:	41 53                	push   %r11
    21e6:	41 54                	push   %r12
    21e8:	41 55                	push   %r13
    21ea:	41 56                	push   %r14
    21ec:	41 57                	push   %r15
    21ee:	9c                   	pushfq 
    21ef:	bf 75 00 00 00       	mov    $0x75,%edi
    21f4:	e8 00 00 00 00       	callq  21f9 <intr_handler_117+0x27>
    21f9:	9d                   	popfq  
    21fa:	41 5f                	pop    %r15
    21fc:	41 5e                	pop    %r14
    21fe:	41 5d                	pop    %r13
    2200:	41 5c                	pop    %r12
    2202:	41 5b                	pop    %r11
    2204:	41 5a                	pop    %r10
    2206:	41 59                	pop    %r9
    2208:	41 58                	pop    %r8
    220a:	5d                   	pop    %rbp
    220b:	48 83 c4 08          	add    $0x8,%rsp
    220f:	5e                   	pop    %rsi
    2210:	5f                   	pop    %rdi
    2211:	5a                   	pop    %rdx
    2212:	59                   	pop    %rcx
    2213:	5b                   	pop    %rbx
    2214:	58                   	pop    %rax
    2215:	48 89 6c 24 38       	mov    %rbp,0x38(%rsp)
    221a:	48 cf                	iretq  

000000000000221c <intr_handler_118>:
    221c:	55                   	push   %rbp
    221d:	48 89 e5             	mov    %rsp,%rbp
    2220:	50                   	push   %rax
    2221:	53                   	push   %rbx
    2222:	51                   	push   %rcx
    2223:	52                   	push   %rdx
    2224:	57                   	push   %rdi
    2225:	56                   	push   %rsi
    2226:	54                   	push   %rsp
    2227:	55                   	push   %rbp
    2228:	41 50                	push   %r8
    222a:	41 51                	push   %r9
    222c:	41 52                	push   %r10
    222e:	41 53                	push   %r11
    2230:	41 54                	push   %r12
    2232:	41 55                	push   %r13
    2234:	41 56                	push   %r14
    2236:	41 57                	push   %r15
    2238:	9c                   	pushfq 
    2239:	bf 76 00 00 00       	mov    $0x76,%edi
    223e:	e8 00 00 00 00       	callq  2243 <intr_handler_118+0x27>
    2243:	9d                   	popfq  
    2244:	41 5f                	pop    %r15
    2246:	41 5e                	pop    %r14
    2248:	41 5d                	pop    %r13
    224a:	41 5c                	pop    %r12
    224c:	41 5b                	pop    %r11
    224e:	41 5a                	pop    %r10
    2250:	41 59                	pop    %r9
    2252:	41 58                	pop    %r8
    2254:	5d                   	pop    %rbp
    2255:	48 83 c4 08          	add    $0x8,%rsp
    2259:	5e                   	pop    %rsi
    225a:	5f                   	pop    %rdi
    225b:	5a                   	pop    %rdx
    225c:	59                   	pop    %rcx
    225d:	5b                   	pop    %rbx
    225e:	58                   	pop    %rax
    225f:	48 89 6c 24 38       	mov    %rbp,0x38(%rsp)
    2264:	48 cf                	iretq  

0000000000002266 <intr_handler_119>:
    2266:	55                   	push   %rbp
    2267:	48 89 e5             	mov    %rsp,%rbp
    226a:	50                   	push   %rax
    226b:	53                   	push   %rbx
    226c:	51                   	push   %rcx
    226d:	52                   	push   %rdx
    226e:	57                   	push   %rdi
    226f:	56                   	push   %rsi
    2270:	54                   	push   %rsp
    2271:	55                   	push   %rbp
    2272:	41 50                	push   %r8
    2274:	41 51                	push   %r9
    2276:	41 52                	push   %r10
    2278:	41 53                	push   %r11
    227a:	41 54                	push   %r12
    227c:	41 55                	push   %r13
    227e:	41 56                	push   %r14
    2280:	41 57                	push   %r15
    2282:	9c                   	pushfq 
    2283:	bf 77 00 00 00       	mov    $0x77,%edi
    2288:	e8 00 00 00 00       	callq  228d <intr_handler_119+0x27>
    228d:	9d                   	popfq  
    228e:	41 5f                	pop    %r15
    2290:	41 5e                	pop    %r14
    2292:	41 5d                	pop    %r13
    2294:	41 5c                	pop    %r12
    2296:	41 5b                	pop    %r11
    2298:	41 5a                	pop    %r10
    229a:	41 59                	pop    %r9
    229c:	41 58                	pop    %r8
    229e:	5d                   	pop    %rbp
    229f:	48 83 c4 08          	add    $0x8,%rsp
    22a3:	5e                   	pop    %rsi
    22a4:	5f                   	pop    %rdi
    22a5:	5a                   	pop    %rdx
    22a6:	59                   	pop    %rcx
    22a7:	5b                   	pop    %rbx
    22a8:	58                   	pop    %rax
    22a9:	48 89 6c 24 38       	mov    %rbp,0x38(%rsp)
    22ae:	48 cf                	iretq  

00000000000022b0 <intr_handler_120>:
    22b0:	55                   	push   %rbp
    22b1:	48 89 e5             	mov    %rsp,%rbp
    22b4:	50                   	push   %rax
    22b5:	53                   	push   %rbx
    22b6:	51                   	push   %rcx
    22b7:	52                   	push   %rdx
    22b8:	57                   	push   %rdi
    22b9:	56                   	push   %rsi
    22ba:	54                   	push   %rsp
    22bb:	55                   	push   %rbp
    22bc:	41 50                	push   %r8
    22be:	41 51                	push   %r9
    22c0:	41 52                	push   %r10
    22c2:	41 53                	push   %r11
    22c4:	41 54                	push   %r12
    22c6:	41 55                	push   %r13
    22c8:	41 56                	push   %r14
    22ca:	41 57                	push   %r15
    22cc:	9c                   	pushfq 
    22cd:	bf 78 00 00 00       	mov    $0x78,%edi
    22d2:	e8 00 00 00 00       	callq  22d7 <intr_handler_120+0x27>
    22d7:	9d                   	popfq  
    22d8:	41 5f                	pop    %r15
    22da:	41 5e                	pop    %r14
    22dc:	41 5d                	pop    %r13
    22de:	41 5c                	pop    %r12
    22e0:	41 5b                	pop    %r11
    22e2:	41 5a                	pop    %r10
    22e4:	41 59                	pop    %r9
    22e6:	41 58                	pop    %r8
    22e8:	5d                   	pop    %rbp
    22e9:	48 83 c4 08          	add    $0x8,%rsp
    22ed:	5e                   	pop    %rsi
    22ee:	5f                   	pop    %rdi
    22ef:	5a                   	pop    %rdx
    22f0:	59                   	pop    %rcx
    22f1:	5b                   	pop    %rbx
    22f2:	58                   	pop    %rax
    22f3:	48 89 6c 24 38       	mov    %rbp,0x38(%rsp)
    22f8:	48 cf                	iretq  

00000000000022fa <intr_handler_121>:
    22fa:	55                   	push   %rbp
    22fb:	48 89 e5             	mov    %rsp,%rbp
    22fe:	50                   	push   %rax
    22ff:	53                   	push   %rbx
    2300:	51                   	push   %rcx
    2301:	52                   	push   %rdx
    2302:	57                   	push   %rdi
    2303:	56                   	push   %rsi
    2304:	54                   	push   %rsp
    2305:	55                   	push   %rbp
    2306:	41 50                	push   %r8
    2308:	41 51                	push   %r9
    230a:	41 52                	push   %r10
    230c:	41 53                	push   %r11
    230e:	41 54                	push   %r12
    2310:	41 55                	push   %r13
    2312:	41 56                	push   %r14
    2314:	41 57                	push   %r15
    2316:	9c                   	pushfq 
    2317:	bf 79 00 00 00       	mov    $0x79,%edi
    231c:	e8 00 00 00 00       	callq  2321 <intr_handler_121+0x27>
    2321:	9d                   	popfq  
    2322:	41 5f                	pop    %r15
    2324:	41 5e                	pop    %r14
    2326:	41 5d                	pop    %r13
    2328:	41 5c                	pop    %r12
    232a:	41 5b                	pop    %r11
    232c:	41 5a                	pop    %r10
    232e:	41 59                	pop    %r9
    2330:	41 58                	pop    %r8
    2332:	5d                   	pop    %rbp
    2333:	48 83 c4 08          	add    $0x8,%rsp
    2337:	5e                   	pop    %rsi
    2338:	5f                   	pop    %rdi
    2339:	5a                   	pop    %rdx
    233a:	59                   	pop    %rcx
    233b:	5b                   	pop    %rbx
    233c:	58                   	pop    %rax
    233d:	48 89 6c 24 38       	mov    %rbp,0x38(%rsp)
    2342:	48 cf                	iretq  

0000000000002344 <intr_handler_122>:
    2344:	55                   	push   %rbp
    2345:	48 89 e5             	mov    %rsp,%rbp
    2348:	50                   	push   %rax
    2349:	53                   	push   %rbx
    234a:	51                   	push   %rcx
    234b:	52                   	push   %rdx
    234c:	57                   	push   %rdi
    234d:	56                   	push   %rsi
    234e:	54                   	push   %rsp
    234f:	55                   	push   %rbp
    2350:	41 50                	push   %r8
    2352:	41 51                	push   %r9
    2354:	41 52                	push   %r10
    2356:	41 53                	push   %r11
    2358:	41 54                	push   %r12
    235a:	41 55                	push   %r13
    235c:	41 56                	push   %r14
    235e:	41 57                	push   %r15
    2360:	9c                   	pushfq 
    2361:	bf 7a 00 00 00       	mov    $0x7a,%edi
    2366:	e8 00 00 00 00       	callq  236b <intr_handler_122+0x27>
    236b:	9d                   	popfq  
    236c:	41 5f                	pop    %r15
    236e:	41 5e                	pop    %r14
    2370:	41 5d                	pop    %r13
    2372:	41 5c                	pop    %r12
    2374:	41 5b                	pop    %r11
    2376:	41 5a                	pop    %r10
    2378:	41 59                	pop    %r9
    237a:	41 58                	pop    %r8
    237c:	5d                   	pop    %rbp
    237d:	48 83 c4 08          	add    $0x8,%rsp
    2381:	5e                   	pop    %rsi
    2382:	5f                   	pop    %rdi
    2383:	5a                   	pop    %rdx
    2384:	59                   	pop    %rcx
    2385:	5b                   	pop    %rbx
    2386:	58                   	pop    %rax
    2387:	48 89 6c 24 38       	mov    %rbp,0x38(%rsp)
    238c:	48 cf                	iretq  

000000000000238e <intr_handler_123>:
    238e:	55                   	push   %rbp
    238f:	48 89 e5             	mov    %rsp,%rbp
    2392:	50                   	push   %rax
    2393:	53                   	push   %rbx
    2394:	51                   	push   %rcx
    2395:	52                   	push   %rdx
    2396:	57                   	push   %rdi
    2397:	56                   	push   %rsi
    2398:	54                   	push   %rsp
    2399:	55                   	push   %rbp
    239a:	41 50                	push   %r8
    239c:	41 51                	push   %r9
    239e:	41 52                	push   %r10
    23a0:	41 53                	push   %r11
    23a2:	41 54                	push   %r12
    23a4:	41 55                	push   %r13
    23a6:	41 56                	push   %r14
    23a8:	41 57                	push   %r15
    23aa:	9c                   	pushfq 
    23ab:	bf 7b 00 00 00       	mov    $0x7b,%edi
    23b0:	e8 00 00 00 00       	callq  23b5 <intr_handler_123+0x27>
    23b5:	9d                   	popfq  
    23b6:	41 5f                	pop    %r15
    23b8:	41 5e                	pop    %r14
    23ba:	41 5d                	pop    %r13
    23bc:	41 5c                	pop    %r12
    23be:	41 5b                	pop    %r11
    23c0:	41 5a                	pop    %r10
    23c2:	41 59                	pop    %r9
    23c4:	41 58                	pop    %r8
    23c6:	5d                   	pop    %rbp
    23c7:	48 83 c4 08          	add    $0x8,%rsp
    23cb:	5e                   	pop    %rsi
    23cc:	5f                   	pop    %rdi
    23cd:	5a                   	pop    %rdx
    23ce:	59                   	pop    %rcx
    23cf:	5b                   	pop    %rbx
    23d0:	58                   	pop    %rax
    23d1:	48 89 6c 24 38       	mov    %rbp,0x38(%rsp)
    23d6:	48 cf                	iretq  

00000000000023d8 <intr_handler_124>:
    23d8:	55                   	push   %rbp
    23d9:	48 89 e5             	mov    %rsp,%rbp
    23dc:	50                   	push   %rax
    23dd:	53                   	push   %rbx
    23de:	51                   	push   %rcx
    23df:	52                   	push   %rdx
    23e0:	57                   	push   %rdi
    23e1:	56                   	push   %rsi
    23e2:	54                   	push   %rsp
    23e3:	55                   	push   %rbp
    23e4:	41 50                	push   %r8
    23e6:	41 51                	push   %r9
    23e8:	41 52                	push   %r10
    23ea:	41 53                	push   %r11
    23ec:	41 54                	push   %r12
    23ee:	41 55                	push   %r13
    23f0:	41 56                	push   %r14
    23f2:	41 57                	push   %r15
    23f4:	9c                   	pushfq 
    23f5:	bf 7c 00 00 00       	mov    $0x7c,%edi
    23fa:	e8 00 00 00 00       	callq  23ff <intr_handler_124+0x27>
    23ff:	9d                   	popfq  
    2400:	41 5f                	pop    %r15
    2402:	41 5e                	pop    %r14
    2404:	41 5d                	pop    %r13
    2406:	41 5c                	pop    %r12
    2408:	41 5b                	pop    %r11
    240a:	41 5a                	pop    %r10
    240c:	41 59                	pop    %r9
    240e:	41 58                	pop    %r8
    2410:	5d                   	pop    %rbp
    2411:	48 83 c4 08          	add    $0x8,%rsp
    2415:	5e                   	pop    %rsi
    2416:	5f                   	pop    %rdi
    2417:	5a                   	pop    %rdx
    2418:	59                   	pop    %rcx
    2419:	5b                   	pop    %rbx
    241a:	58                   	pop    %rax
    241b:	48 89 6c 24 38       	mov    %rbp,0x38(%rsp)
    2420:	48 cf                	iretq  

0000000000002422 <intr_handler_125>:
    2422:	55                   	push   %rbp
    2423:	48 89 e5             	mov    %rsp,%rbp
    2426:	50                   	push   %rax
    2427:	53                   	push   %rbx
    2428:	51                   	push   %rcx
    2429:	52                   	push   %rdx
    242a:	57                   	push   %rdi
    242b:	56                   	push   %rsi
    242c:	54                   	push   %rsp
    242d:	55                   	push   %rbp
    242e:	41 50                	push   %r8
    2430:	41 51                	push   %r9
    2432:	41 52                	push   %r10
    2434:	41 53                	push   %r11
    2436:	41 54                	push   %r12
    2438:	41 55                	push   %r13
    243a:	41 56                	push   %r14
    243c:	41 57                	push   %r15
    243e:	9c                   	pushfq 
    243f:	bf 7d 00 00 00       	mov    $0x7d,%edi
    2444:	e8 00 00 00 00       	callq  2449 <intr_handler_125+0x27>
    2449:	9d                   	popfq  
    244a:	41 5f                	pop    %r15
    244c:	41 5e                	pop    %r14
    244e:	41 5d                	pop    %r13
    2450:	41 5c                	pop    %r12
    2452:	41 5b                	pop    %r11
    2454:	41 5a                	pop    %r10
    2456:	41 59                	pop    %r9
    2458:	41 58                	pop    %r8
    245a:	5d                   	pop    %rbp
    245b:	48 83 c4 08          	add    $0x8,%rsp
    245f:	5e                   	pop    %rsi
    2460:	5f                   	pop    %rdi
    2461:	5a                   	pop    %rdx
    2462:	59                   	pop    %rcx
    2463:	5b                   	pop    %rbx
    2464:	58                   	pop    %rax
    2465:	48 89 6c 24 38       	mov    %rbp,0x38(%rsp)
    246a:	48 cf                	iretq  

000000000000246c <intr_handler_126>:
    246c:	55                   	push   %rbp
    246d:	48 89 e5             	mov    %rsp,%rbp
    2470:	50                   	push   %rax
    2471:	53                   	push   %rbx
    2472:	51                   	push   %rcx
    2473:	52                   	push   %rdx
    2474:	57                   	push   %rdi
    2475:	56                   	push   %rsi
    2476:	54                   	push   %rsp
    2477:	55                   	push   %rbp
    2478:	41 50                	push   %r8
    247a:	41 51                	push   %r9
    247c:	41 52                	push   %r10
    247e:	41 53                	push   %r11
    2480:	41 54                	push   %r12
    2482:	41 55                	push   %r13
    2484:	41 56                	push   %r14
    2486:	41 57                	push   %r15
    2488:	9c                   	pushfq 
    2489:	bf 7e 00 00 00       	mov    $0x7e,%edi
    248e:	e8 00 00 00 00       	callq  2493 <intr_handler_126+0x27>
    2493:	9d                   	popfq  
    2494:	41 5f                	pop    %r15
    2496:	41 5e                	pop    %r14
    2498:	41 5d                	pop    %r13
    249a:	41 5c                	pop    %r12
    249c:	41 5b                	pop    %r11
    249e:	41 5a                	pop    %r10
    24a0:	41 59                	pop    %r9
    24a2:	41 58                	pop    %r8
    24a4:	5d                   	pop    %rbp
    24a5:	48 83 c4 08          	add    $0x8,%rsp
    24a9:	5e                   	pop    %rsi
    24aa:	5f                   	pop    %rdi
    24ab:	5a                   	pop    %rdx
    24ac:	59                   	pop    %rcx
    24ad:	5b                   	pop    %rbx
    24ae:	58                   	pop    %rax
    24af:	48 89 6c 24 38       	mov    %rbp,0x38(%rsp)
    24b4:	48 cf                	iretq  

00000000000024b6 <intr_handler_127>:
    24b6:	55                   	push   %rbp
    24b7:	48 89 e5             	mov    %rsp,%rbp
    24ba:	50                   	push   %rax
    24bb:	53                   	push   %rbx
    24bc:	51                   	push   %rcx
    24bd:	52                   	push   %rdx
    24be:	57                   	push   %rdi
    24bf:	56                   	push   %rsi
    24c0:	54                   	push   %rsp
    24c1:	55                   	push   %rbp
    24c2:	41 50                	push   %r8
    24c4:	41 51                	push   %r9
    24c6:	41 52                	push   %r10
    24c8:	41 53                	push   %r11
    24ca:	41 54                	push   %r12
    24cc:	41 55                	push   %r13
    24ce:	41 56                	push   %r14
    24d0:	41 57                	push   %r15
    24d2:	9c                   	pushfq 
    24d3:	bf 7f 00 00 00       	mov    $0x7f,%edi
    24d8:	e8 00 00 00 00       	callq  24dd <intr_handler_127+0x27>
    24dd:	9d                   	popfq  
    24de:	41 5f                	pop    %r15
    24e0:	41 5e                	pop    %r14
    24e2:	41 5d                	pop    %r13
    24e4:	41 5c                	pop    %r12
    24e6:	41 5b                	pop    %r11
    24e8:	41 5a                	pop    %r10
    24ea:	41 59                	pop    %r9
    24ec:	41 58                	pop    %r8
    24ee:	5d                   	pop    %rbp
    24ef:	48 83 c4 08          	add    $0x8,%rsp
    24f3:	5e                   	pop    %rsi
    24f4:	5f                   	pop    %rdi
    24f5:	5a                   	pop    %rdx
    24f6:	59                   	pop    %rcx
    24f7:	5b                   	pop    %rbx
    24f8:	58                   	pop    %rax
    24f9:	48 89 6c 24 38       	mov    %rbp,0x38(%rsp)
    24fe:	48 cf                	iretq  

0000000000002500 <intr_handler_128>:
    2500:	55                   	push   %rbp
    2501:	48 89 e5             	mov    %rsp,%rbp
    2504:	50                   	push   %rax
    2505:	53                   	push   %rbx
    2506:	51                   	push   %rcx
    2507:	52                   	push   %rdx
    2508:	57                   	push   %rdi
    2509:	56                   	push   %rsi
    250a:	54                   	push   %rsp
    250b:	55                   	push   %rbp
    250c:	41 50                	push   %r8
    250e:	41 51                	push   %r9
    2510:	41 52                	push   %r10
    2512:	41 53                	push   %r11
    2514:	41 54                	push   %r12
    2516:	41 55                	push   %r13
    2518:	41 56                	push   %r14
    251a:	41 57                	push   %r15
    251c:	9c                   	pushfq 
    251d:	bf 80 00 00 00       	mov    $0x80,%edi
    2522:	e8 00 00 00 00       	callq  2527 <intr_handler_128+0x27>
    2527:	9d                   	popfq  
    2528:	41 5f                	pop    %r15
    252a:	41 5e                	pop    %r14
    252c:	41 5d                	pop    %r13
    252e:	41 5c                	pop    %r12
    2530:	41 5b                	pop    %r11
    2532:	41 5a                	pop    %r10
    2534:	41 59                	pop    %r9
    2536:	41 58                	pop    %r8
    2538:	5d                   	pop    %rbp
    2539:	48 83 c4 08          	add    $0x8,%rsp
    253d:	5e                   	pop    %rsi
    253e:	5f                   	pop    %rdi
    253f:	5a                   	pop    %rdx
    2540:	59                   	pop    %rcx
    2541:	5b                   	pop    %rbx
    2542:	58                   	pop    %rax
    2543:	48 89 6c 24 38       	mov    %rbp,0x38(%rsp)
    2548:	48 cf                	iretq  

000000000000254a <intr_handler_129>:
    254a:	55                   	push   %rbp
    254b:	48 89 e5             	mov    %rsp,%rbp
    254e:	50                   	push   %rax
    254f:	53                   	push   %rbx
    2550:	51                   	push   %rcx
    2551:	52                   	push   %rdx
    2552:	57                   	push   %rdi
    2553:	56                   	push   %rsi
    2554:	54                   	push   %rsp
    2555:	55                   	push   %rbp
    2556:	41 50                	push   %r8
    2558:	41 51                	push   %r9
    255a:	41 52                	push   %r10
    255c:	41 53                	push   %r11
    255e:	41 54                	push   %r12
    2560:	41 55                	push   %r13
    2562:	41 56                	push   %r14
    2564:	41 57                	push   %r15
    2566:	9c                   	pushfq 
    2567:	bf 81 00 00 00       	mov    $0x81,%edi
    256c:	e8 00 00 00 00       	callq  2571 <intr_handler_129+0x27>
    2571:	9d                   	popfq  
    2572:	41 5f                	pop    %r15
    2574:	41 5e                	pop    %r14
    2576:	41 5d                	pop    %r13
    2578:	41 5c                	pop    %r12
    257a:	41 5b                	pop    %r11
    257c:	41 5a                	pop    %r10
    257e:	41 59                	pop    %r9
    2580:	41 58                	pop    %r8
    2582:	5d                   	pop    %rbp
    2583:	48 83 c4 08          	add    $0x8,%rsp
    2587:	5e                   	pop    %rsi
    2588:	5f                   	pop    %rdi
    2589:	5a                   	pop    %rdx
    258a:	59                   	pop    %rcx
    258b:	5b                   	pop    %rbx
    258c:	58                   	pop    %rax
    258d:	48 89 6c 24 38       	mov    %rbp,0x38(%rsp)
    2592:	48 cf                	iretq  

0000000000002594 <intr_handler_130>:
    2594:	55                   	push   %rbp
    2595:	48 89 e5             	mov    %rsp,%rbp
    2598:	50                   	push   %rax
    2599:	53                   	push   %rbx
    259a:	51                   	push   %rcx
    259b:	52                   	push   %rdx
    259c:	57                   	push   %rdi
    259d:	56                   	push   %rsi
    259e:	54                   	push   %rsp
    259f:	55                   	push   %rbp
    25a0:	41 50                	push   %r8
    25a2:	41 51                	push   %r9
    25a4:	41 52                	push   %r10
    25a6:	41 53                	push   %r11
    25a8:	41 54                	push   %r12
    25aa:	41 55                	push   %r13
    25ac:	41 56                	push   %r14
    25ae:	41 57                	push   %r15
    25b0:	9c                   	pushfq 
    25b1:	bf 82 00 00 00       	mov    $0x82,%edi
    25b6:	e8 00 00 00 00       	callq  25bb <intr_handler_130+0x27>
    25bb:	9d                   	popfq  
    25bc:	41 5f                	pop    %r15
    25be:	41 5e                	pop    %r14
    25c0:	41 5d                	pop    %r13
    25c2:	41 5c                	pop    %r12
    25c4:	41 5b                	pop    %r11
    25c6:	41 5a                	pop    %r10
    25c8:	41 59                	pop    %r9
    25ca:	41 58                	pop    %r8
    25cc:	5d                   	pop    %rbp
    25cd:	48 83 c4 08          	add    $0x8,%rsp
    25d1:	5e                   	pop    %rsi
    25d2:	5f                   	pop    %rdi
    25d3:	5a                   	pop    %rdx
    25d4:	59                   	pop    %rcx
    25d5:	5b                   	pop    %rbx
    25d6:	58                   	pop    %rax
    25d7:	48 89 6c 24 38       	mov    %rbp,0x38(%rsp)
    25dc:	48 cf                	iretq  

00000000000025de <intr_handler_131>:
    25de:	55                   	push   %rbp
    25df:	48 89 e5             	mov    %rsp,%rbp
    25e2:	50                   	push   %rax
    25e3:	53                   	push   %rbx
    25e4:	51                   	push   %rcx
    25e5:	52                   	push   %rdx
    25e6:	57                   	push   %rdi
    25e7:	56                   	push   %rsi
    25e8:	54                   	push   %rsp
    25e9:	55                   	push   %rbp
    25ea:	41 50                	push   %r8
    25ec:	41 51                	push   %r9
    25ee:	41 52                	push   %r10
    25f0:	41 53                	push   %r11
    25f2:	41 54                	push   %r12
    25f4:	41 55                	push   %r13
    25f6:	41 56                	push   %r14
    25f8:	41 57                	push   %r15
    25fa:	9c                   	pushfq 
    25fb:	bf 83 00 00 00       	mov    $0x83,%edi
    2600:	e8 00 00 00 00       	callq  2605 <intr_handler_131+0x27>
    2605:	9d                   	popfq  
    2606:	41 5f                	pop    %r15
    2608:	41 5e                	pop    %r14
    260a:	41 5d                	pop    %r13
    260c:	41 5c                	pop    %r12
    260e:	41 5b                	pop    %r11
    2610:	41 5a                	pop    %r10
    2612:	41 59                	pop    %r9
    2614:	41 58                	pop    %r8
    2616:	5d                   	pop    %rbp
    2617:	48 83 c4 08          	add    $0x8,%rsp
    261b:	5e                   	pop    %rsi
    261c:	5f                   	pop    %rdi
    261d:	5a                   	pop    %rdx
    261e:	59                   	pop    %rcx
    261f:	5b                   	pop    %rbx
    2620:	58                   	pop    %rax
    2621:	48 89 6c 24 38       	mov    %rbp,0x38(%rsp)
    2626:	48 cf                	iretq  

0000000000002628 <intr_handler_132>:
    2628:	55                   	push   %rbp
    2629:	48 89 e5             	mov    %rsp,%rbp
    262c:	50                   	push   %rax
    262d:	53                   	push   %rbx
    262e:	51                   	push   %rcx
    262f:	52                   	push   %rdx
    2630:	57                   	push   %rdi
    2631:	56                   	push   %rsi
    2632:	54                   	push   %rsp
    2633:	55                   	push   %rbp
    2634:	41 50                	push   %r8
    2636:	41 51                	push   %r9
    2638:	41 52                	push   %r10
    263a:	41 53                	push   %r11
    263c:	41 54                	push   %r12
    263e:	41 55                	push   %r13
    2640:	41 56                	push   %r14
    2642:	41 57                	push   %r15
    2644:	9c                   	pushfq 
    2645:	bf 84 00 00 00       	mov    $0x84,%edi
    264a:	e8 00 00 00 00       	callq  264f <intr_handler_132+0x27>
    264f:	9d                   	popfq  
    2650:	41 5f                	pop    %r15
    2652:	41 5e                	pop    %r14
    2654:	41 5d                	pop    %r13
    2656:	41 5c                	pop    %r12
    2658:	41 5b                	pop    %r11
    265a:	41 5a                	pop    %r10
    265c:	41 59                	pop    %r9
    265e:	41 58                	pop    %r8
    2660:	5d                   	pop    %rbp
    2661:	48 83 c4 08          	add    $0x8,%rsp
    2665:	5e                   	pop    %rsi
    2666:	5f                   	pop    %rdi
    2667:	5a                   	pop    %rdx
    2668:	59                   	pop    %rcx
    2669:	5b                   	pop    %rbx
    266a:	58                   	pop    %rax
    266b:	48 89 6c 24 38       	mov    %rbp,0x38(%rsp)
    2670:	48 cf                	iretq  

0000000000002672 <intr_handler_133>:
    2672:	55                   	push   %rbp
    2673:	48 89 e5             	mov    %rsp,%rbp
    2676:	50                   	push   %rax
    2677:	53                   	push   %rbx
    2678:	51                   	push   %rcx
    2679:	52                   	push   %rdx
    267a:	57                   	push   %rdi
    267b:	56                   	push   %rsi
    267c:	54                   	push   %rsp
    267d:	55                   	push   %rbp
    267e:	41 50                	push   %r8
    2680:	41 51                	push   %r9
    2682:	41 52                	push   %r10
    2684:	41 53                	push   %r11
    2686:	41 54                	push   %r12
    2688:	41 55                	push   %r13
    268a:	41 56                	push   %r14
    268c:	41 57                	push   %r15
    268e:	9c                   	pushfq 
    268f:	bf 85 00 00 00       	mov    $0x85,%edi
    2694:	e8 00 00 00 00       	callq  2699 <intr_handler_133+0x27>
    2699:	9d                   	popfq  
    269a:	41 5f                	pop    %r15
    269c:	41 5e                	pop    %r14
    269e:	41 5d                	pop    %r13
    26a0:	41 5c                	pop    %r12
    26a2:	41 5b                	pop    %r11
    26a4:	41 5a                	pop    %r10
    26a6:	41 59                	pop    %r9
    26a8:	41 58                	pop    %r8
    26aa:	5d                   	pop    %rbp
    26ab:	48 83 c4 08          	add    $0x8,%rsp
    26af:	5e                   	pop    %rsi
    26b0:	5f                   	pop    %rdi
    26b1:	5a                   	pop    %rdx
    26b2:	59                   	pop    %rcx
    26b3:	5b                   	pop    %rbx
    26b4:	58                   	pop    %rax
    26b5:	48 89 6c 24 38       	mov    %rbp,0x38(%rsp)
    26ba:	48 cf                	iretq  

00000000000026bc <intr_handler_134>:
    26bc:	55                   	push   %rbp
    26bd:	48 89 e5             	mov    %rsp,%rbp
    26c0:	50                   	push   %rax
    26c1:	53                   	push   %rbx
    26c2:	51                   	push   %rcx
    26c3:	52                   	push   %rdx
    26c4:	57                   	push   %rdi
    26c5:	56                   	push   %rsi
    26c6:	54                   	push   %rsp
    26c7:	55                   	push   %rbp
    26c8:	41 50                	push   %r8
    26ca:	41 51                	push   %r9
    26cc:	41 52                	push   %r10
    26ce:	41 53                	push   %r11
    26d0:	41 54                	push   %r12
    26d2:	41 55                	push   %r13
    26d4:	41 56                	push   %r14
    26d6:	41 57                	push   %r15
    26d8:	9c                   	pushfq 
    26d9:	bf 86 00 00 00       	mov    $0x86,%edi
    26de:	e8 00 00 00 00       	callq  26e3 <intr_handler_134+0x27>
    26e3:	9d                   	popfq  
    26e4:	41 5f                	pop    %r15
    26e6:	41 5e                	pop    %r14
    26e8:	41 5d                	pop    %r13
    26ea:	41 5c                	pop    %r12
    26ec:	41 5b                	pop    %r11
    26ee:	41 5a                	pop    %r10
    26f0:	41 59                	pop    %r9
    26f2:	41 58                	pop    %r8
    26f4:	5d                   	pop    %rbp
    26f5:	48 83 c4 08          	add    $0x8,%rsp
    26f9:	5e                   	pop    %rsi
    26fa:	5f                   	pop    %rdi
    26fb:	5a                   	pop    %rdx
    26fc:	59                   	pop    %rcx
    26fd:	5b                   	pop    %rbx
    26fe:	58                   	pop    %rax
    26ff:	48 89 6c 24 38       	mov    %rbp,0x38(%rsp)
    2704:	48 cf                	iretq  

0000000000002706 <intr_handler_135>:
    2706:	55                   	push   %rbp
    2707:	48 89 e5             	mov    %rsp,%rbp
    270a:	50                   	push   %rax
    270b:	53                   	push   %rbx
    270c:	51                   	push   %rcx
    270d:	52                   	push   %rdx
    270e:	57                   	push   %rdi
    270f:	56                   	push   %rsi
    2710:	54                   	push   %rsp
    2711:	55                   	push   %rbp
    2712:	41 50                	push   %r8
    2714:	41 51                	push   %r9
    2716:	41 52                	push   %r10
    2718:	41 53                	push   %r11
    271a:	41 54                	push   %r12
    271c:	41 55                	push   %r13
    271e:	41 56                	push   %r14
    2720:	41 57                	push   %r15
    2722:	9c                   	pushfq 
    2723:	bf 87 00 00 00       	mov    $0x87,%edi
    2728:	e8 00 00 00 00       	callq  272d <intr_handler_135+0x27>
    272d:	9d                   	popfq  
    272e:	41 5f                	pop    %r15
    2730:	41 5e                	pop    %r14
    2732:	41 5d                	pop    %r13
    2734:	41 5c                	pop    %r12
    2736:	41 5b                	pop    %r11
    2738:	41 5a                	pop    %r10
    273a:	41 59                	pop    %r9
    273c:	41 58                	pop    %r8
    273e:	5d                   	pop    %rbp
    273f:	48 83 c4 08          	add    $0x8,%rsp
    2743:	5e                   	pop    %rsi
    2744:	5f                   	pop    %rdi
    2745:	5a                   	pop    %rdx
    2746:	59                   	pop    %rcx
    2747:	5b                   	pop    %rbx
    2748:	58                   	pop    %rax
    2749:	48 89 6c 24 38       	mov    %rbp,0x38(%rsp)
    274e:	48 cf                	iretq  

0000000000002750 <intr_handler_136>:
    2750:	55                   	push   %rbp
    2751:	48 89 e5             	mov    %rsp,%rbp
    2754:	50                   	push   %rax
    2755:	53                   	push   %rbx
    2756:	51                   	push   %rcx
    2757:	52                   	push   %rdx
    2758:	57                   	push   %rdi
    2759:	56                   	push   %rsi
    275a:	54                   	push   %rsp
    275b:	55                   	push   %rbp
    275c:	41 50                	push   %r8
    275e:	41 51                	push   %r9
    2760:	41 52                	push   %r10
    2762:	41 53                	push   %r11
    2764:	41 54                	push   %r12
    2766:	41 55                	push   %r13
    2768:	41 56                	push   %r14
    276a:	41 57                	push   %r15
    276c:	9c                   	pushfq 
    276d:	bf 88 00 00 00       	mov    $0x88,%edi
